Archive member included to satisfy reference by file (symbol)

c:/program files/microchip/xc32/v4.60/bin/bin/../../lib/gcc/pic32c/8.3.1/thumb/v7-a+simd/hard\libgcc.a(_udivsi3.o)
                              build/default/debug/_ext/411819097/ff.o (__aeabi_uidiv)
c:/program files/microchip/xc32/v4.60/bin/bin/../../lib/gcc/pic32c/8.3.1/thumb/v7-a+simd/hard\libgcc.a(_divsi3.o)
                              build/default/debug/_ext/411819097/ff.o (__aeabi_idiv)
c:/program files/microchip/xc32/v4.60/bin/bin/../../lib/gcc/pic32c/8.3.1/thumb/v7-a+simd/hard\libgcc.a(_dvmd_tls.o)
                              c:/program files/microchip/xc32/v4.60/bin/bin/../../lib/gcc/pic32c/8.3.1/thumb/v7-a+simd/hard\libgcc.a(_udivsi3.o) (__aeabi_idiv0)
c:/program files/microchip/xc32/v4.60/bin/bin/../../lib/gcc/pic32c/8.3.1/thumb/v7-a+simd/hard\libgcc.a(_aeabi_uldivmod.o)
                              build/default/debug/_ext/411819097/ff.o (__aeabi_uldivmod)
c:/program files/microchip/xc32/v4.60/bin/bin/../../lib/gcc/pic32c/8.3.1/thumb/v7-a+simd/hard\libgcc.a(_udivmoddi4.o)
                              c:/program files/microchip/xc32/v4.60/bin/bin/../../lib/gcc/pic32c/8.3.1/thumb/v7-a+simd/hard\libgcc.a(_aeabi_uldivmod.o) (__udivmoddi4)
c:/program files/microchip/xc32/v4.60/bin/bin/../../lib/gcc/pic32c/8.3.1/../../../../pic32c/lib/thumb/v7-a+simd/hard\libc-size-musl.a(memcmp.o)
                              build/default/debug/_ext/411819097/ff.o (memcmp)
c:/program files/microchip/xc32/v4.60/bin/bin/../../lib/gcc/pic32c/8.3.1/../../../../pic32c/lib/thumb/v7-a+simd/hard\libc-size-musl.a(memcpy.o)
                              build/default/debug/_ext/1535495969/drv_usb_ohci.o (memcpy)
c:/program files/microchip/xc32/v4.60/bin/bin/../../lib/gcc/pic32c/8.3.1/../../../../pic32c/lib/thumb/v7-a+simd/hard\libc-size-musl.a(memmove.o)
                              build/default/debug/_ext/565198302/diskio.o (memmove)
c:/program files/microchip/xc32/v4.60/bin/bin/../../lib/gcc/pic32c/8.3.1/../../../../pic32c/lib/thumb/v7-a+simd/hard\libc-size-musl.a(memset.o)
                              build/default/debug/_ext/1535495969/drv_usb_ohci.o (memset)
c:/program files/microchip/xc32/v4.60/bin/bin/../../lib/gcc/pic32c/8.3.1/../../../../pic32c/lib/thumb/v7-a+simd/hard\libc-size-musl.a(strlen.o)
                              build/default/debug/_ext/1269487135/sys_fs_media_manager.o (strlen)
c:/program files/microchip/xc32/v4.60/bin/bin/../../lib/gcc/pic32c/8.3.1/../../../../pic32c/lib/thumb/v7-a+simd/hard\libc-size-musl.a(strchr.o)
                              build/default/debug/_ext/411819097/ff.o (strchr)
c:/program files/microchip/xc32/v4.60/bin/bin/../../lib/gcc/pic32c/8.3.1/../../../../pic32c/lib/thumb/v7-a+simd/hard\libc-size-musl.a(strchrnul.o)
                              c:/program files/microchip/xc32/v4.60/bin/bin/../../lib/gcc/pic32c/8.3.1/../../../../pic32c/lib/thumb/v7-a+simd/hard\libc-size-musl.a(strchr.o) (__strchrnul)
c:/program files/microchip/xc32/v4.60/bin/bin/../../lib/gcc/pic32c/8.3.1/../../../../pic32c/lib/thumb/v7-a+simd/hard\libc-size-musl.a(strcmp.o)
                              build/default/debug/_ext/1269487135/sys_fs_media_manager.o (strcmp)
c:/program files/microchip/xc32/v4.60/bin/bin/../../lib/gcc/pic32c/8.3.1/../../../../pic32c/lib/thumb/v7-a+simd/hard\libc-size-musl.a(strcpy.o)
                              build/default/debug/_ext/1269487135/sys_fs.o (strcpy)
c:/program files/microchip/xc32/v4.60/bin/bin/../../lib/gcc/pic32c/8.3.1/../../../../pic32c/lib/thumb/v7-a+simd/hard\libc-size-musl.a(strncmp.o)
                              build/default/debug/_ext/1269487135/sys_fs_media_manager.o (strncmp)
c:/program files/microchip/xc32/v4.60/bin/bin/../../lib/gcc/pic32c/8.3.1/../../../../pic32c/lib/thumb/v7-a+simd/hard\libc-size-musl.a(stpcpy.o)
                              c:/program files/microchip/xc32/v4.60/bin/bin/../../lib/gcc/pic32c/8.3.1/../../../../pic32c/lib/thumb/v7-a+simd/hard\libc-size-musl.a(strcpy.o) (__stpcpy)
c:/program files/microchip/xc32/v4.60/bin/bin/../../lib/gcc/pic32c/8.3.1/../../../../pic32c/lib/thumb/v7-a+simd/hard\liblmalloc-musl.a(lite_free.o)
                              build/default/debug/_ext/308758920/usb_host.o (free)
c:/program files/microchip/xc32/v4.60/bin/bin/../../lib/gcc/pic32c/8.3.1/../../../../pic32c/lib/thumb/v7-a+simd/hard\liblmalloc-musl.a(lite_malloc.o)
                              build/default/debug/_ext/308758920/usb_host.o (malloc)
c:/program files/microchip/xc32/v4.60/bin/bin/../../lib/gcc/pic32c/8.3.1/../../../../pic32c/lib/thumb/v7-a+simd/hard\libg-musl.a(__libc_start_main.o)
                              build/default/debug/_ext/1171490990/cstartup.o (__libc_init_array)
c:/program files/microchip/xc32/v4.60/bin/bin/../../lib/gcc/pic32c/8.3.1/../../../../pic32c/lib/thumb/v7-a+simd/hard\libg-musl.a(__errno_location.o)
                              c:/program files/microchip/xc32/v4.60/bin/bin/../../lib/gcc/pic32c/8.3.1/../../../../pic32c/lib/thumb/v7-a+simd/hard\liblmalloc-musl.a(lite_malloc.o) (__errno_val)
c:/program files/microchip/xc32/v4.60/bin/bin/../../lib/gcc/pic32c/8.3.1/../../../../pic32c/lib/thumb/v7-a+simd/hard\libg-musl.a(libc.o)
                              c:/program files/microchip/xc32/v4.60/bin/bin/../../lib/gcc/pic32c/8.3.1/../../../../pic32c/lib/thumb/v7-a+simd/hard\libg-musl.a(__libc_start_main.o) (__progname_full)
c:/program files/microchip/xc32/v4.60/bin/bin/../../lib/gcc/pic32c/8.3.1/../../../../pic32c/lib/thumb/v7-a+simd/hard\libg-musl.a(expand_heap.o)
                              c:/program files/microchip/xc32/v4.60/bin/bin/../../lib/gcc/pic32c/8.3.1/../../../../pic32c/lib/thumb/v7-a+simd/hard\liblmalloc-musl.a(lite_malloc.o) (__expand_heap)
c:/program files/microchip/xc32/v4.60/bin/bin/../../lib/gcc/pic32c/8.3.1/../../../../pic32c/lib/thumb/v7-a+simd/hard\libg-musl.a(__sio_printf_dn.o)
                              (_printf_dn)
c:/program files/microchip/xc32/v4.60/bin/bin/../../lib/gcc/pic32c/8.3.1/../../../../pic32c/lib/thumb/v7-a+simd/hard\libg-musl.a(__fmt_d.o)
                              c:/program files/microchip/xc32/v4.60/bin/bin/../../lib/gcc/pic32c/8.3.1/../../../../pic32c/lib/thumb/v7-a+simd/hard\libg-musl.a(__sio_printf_dn.o) (__fmt_d_needed)
c:/program files/microchip/xc32/v4.60/bin/bin/../../lib/gcc/pic32c/8.3.1/../../../../pic32c/lib/thumb/v7-a+simd/hard\libg-musl.a(__pop_int.o)
                              c:/program files/microchip/xc32/v4.60/bin/bin/../../lib/gcc/pic32c/8.3.1/../../../../pic32c/lib/thumb/v7-a+simd/hard\libg-musl.a(__sio_printf_dn.o) (__pop_int_needed)
c:/program files/microchip/xc32/v4.60/bin/bin/../../lib/gcc/pic32c/8.3.1/../../../../pic32c/lib/thumb/v7-a+simd/hard\libg-musl.a(__pop_ptr.o)
                              c:/program files/microchip/xc32/v4.60/bin/bin/../../lib/gcc/pic32c/8.3.1/../../../../pic32c/lib/thumb/v7-a+simd/hard\libg-musl.a(__sio_printf_dn.o) (__pop_ptr_needed)
c:/program files/microchip/xc32/v4.60/bin/bin/../../lib/gcc/pic32c/8.3.1/../../../../pic32c/lib/thumb/v7-a+simd/hard\libg-musl.a(__printf_core.o)
                              c:/program files/microchip/xc32/v4.60/bin/bin/../../lib/gcc/pic32c/8.3.1/../../../../pic32c/lib/thumb/v7-a+simd/hard\libg-musl.a(__fmt_d.o) (__pad)
c:/program files/microchip/xc32/v4.60/bin/bin/../../lib/gcc/pic32c/8.3.1/../../../../pic32c/lib/thumb/v7-a+simd/hard\libg-musl.a(stdin.o)
                              build/default/debug/_ext/1171490990/initialization.o (_stdin)
c:/program files/microchip/xc32/v4.60/bin/bin/../../lib/gcc/pic32c/8.3.1/../../../../pic32c/lib/thumb/v7-a+simd/hard\libg-musl.a(stdout.o)
                              build/default/debug/_ext/1171490990/initialization.o (_stdout)
c:/program files/microchip/xc32/v4.60/bin/bin/../../lib/gcc/pic32c/8.3.1/../../../../pic32c/lib/thumb/v7-a+simd/hard\libg-musl.a(puts.o)
                              build/default/debug/_ext/1360937237/app.o (puts)
c:/program files/microchip/xc32/v4.60/bin/bin/../../lib/gcc/pic32c/8.3.1/../../../../pic32c/lib/thumb/v7-a+simd/hard\libg-musl.a(setbuf.o)
                              build/default/debug/_ext/1171490990/initialization.o (setbuf)
c:/program files/microchip/xc32/v4.60/bin/bin/../../lib/gcc/pic32c/8.3.1/../../../../pic32c/lib/thumb/v7-a+simd/hard\libg-musl.a(atoi.o)
                              c:/program files/microchip/xc32/v4.60/bin/bin/../../lib/gcc/pic32c/8.3.1/../../../../pic32c/lib/thumb/v7-a+simd/hard\libg-musl.a(__printf_core.o) (atoi)
c:/program files/microchip/xc32/v4.60/bin/bin/../../lib/gcc/pic32c/8.3.1/../../../../pic32c/lib/thumb/v7-a+simd/hard\libg-musl.a(tolower.o)
                              c:/program files/microchip/xc32/v4.60/bin/bin/../../lib/gcc/pic32c/8.3.1/../../../../pic32c/lib/thumb/v7-a+simd/hard\libg-musl.a(__printf_core.o) (tolower)
c:/program files/microchip/xc32/v4.60/bin/bin/../../lib/gcc/pic32c/8.3.1/../../../../pic32c/lib/thumb/v7-a+simd/hard\libg-musl.a(__environ.o)
                              c:/program files/microchip/xc32/v4.60/bin/bin/../../lib/gcc/pic32c/8.3.1/../../../../pic32c/lib/thumb/v7-a+simd/hard\libg-musl.a(__libc_start_main.o) (__environ)
c:/program files/microchip/xc32/v4.60/bin/bin/../../lib/gcc/pic32c/8.3.1/../../../../pic32c/lib/thumb/v7-a+simd/hard\libg-musl.a(__int_vfprintf.o)
                              c:/program files/microchip/xc32/v4.60/bin/bin/../../lib/gcc/pic32c/8.3.1/../../../../pic32c/lib/thumb/v7-a+simd/hard\libg-musl.a(__sio_printf_dn.o) (__vfprintf)
c:/program files/microchip/xc32/v4.60/bin/bin/../../lib/gcc/pic32c/8.3.1/../../../../pic32c/lib/thumb/v7-a+simd/hard\libg-musl.a(fputs.o)
                              c:/program files/microchip/xc32/v4.60/bin/bin/../../lib/gcc/pic32c/8.3.1/../../../../pic32c/lib/thumb/v7-a+simd/hard\libg-musl.a(puts.o) (fputs)
c:/program files/microchip/xc32/v4.60/bin/bin/../../lib/gcc/pic32c/8.3.1/../../../../pic32c/lib/thumb/v7-a+simd/hard\libg-musl.a(__cvt_u.o)
                              c:/program files/microchip/xc32/v4.60/bin/bin/../../lib/gcc/pic32c/8.3.1/../../../../pic32c/lib/thumb/v7-a+simd/hard\libg-musl.a(__fmt_d.o) (__cvt_u)
c:/program files/microchip/xc32/v4.60/bin/bin/../../lib/gcc/pic32c/8.3.1/../../../../pic32c/lib/thumb/v7-a+simd/hard\libg-musl.a(__io_init_needed.o)
                              c:/program files/microchip/xc32/v4.60/bin/bin/../../lib/gcc/pic32c/8.3.1/../../../../pic32c/lib/thumb/v7-a+simd/hard\libg-musl.a(stdout.o) (__io_init_needed)
c:/program files/microchip/xc32/v4.60/bin/bin/../../lib/gcc/pic32c/8.3.1/../../../../pic32c/lib/thumb/v7-a+simd/hard\libg-musl.a(__io_rw_needed.o)
                              c:/program files/microchip/xc32/v4.60/bin/bin/../../lib/gcc/pic32c/8.3.1/../../../../pic32c/lib/thumb/v7-a+simd/hard\libg-musl.a(stdin.o) (__io_rw_needed)
c:/program files/microchip/xc32/v4.60/bin/bin/../../lib/gcc/pic32c/8.3.1/../../../../pic32c/lib/thumb/v7-a+simd/hard\libg-musl.a(__pop_float.o)
                              c:/program files/microchip/xc32/v4.60/bin/bin/../../lib/gcc/pic32c/8.3.1/../../../../pic32c/lib/thumb/v7-a+simd/hard\libg-musl.a(__printf_core.o) (__pop_float)
c:/program files/microchip/xc32/v4.60/bin/bin/../../lib/gcc/pic32c/8.3.1/../../../../pic32c/lib/thumb/v7-a+simd/hard\libg-musl.a(__stdio_read.o)
                              c:/program files/microchip/xc32/v4.60/bin/bin/../../lib/gcc/pic32c/8.3.1/../../../../pic32c/lib/thumb/v7-a+simd/hard\libg-musl.a(stdin.o) (__stdio_read)
c:/program files/microchip/xc32/v4.60/bin/bin/../../lib/gcc/pic32c/8.3.1/../../../../pic32c/lib/thumb/v7-a+simd/hard\libg-musl.a(__towrite_rw.o)
                              c:/program files/microchip/xc32/v4.60/bin/bin/../../lib/gcc/pic32c/8.3.1/../../../../pic32c/lib/thumb/v7-a+simd/hard\libg-musl.a(__io_rw_needed.o) (__towrite_rw_needed)
c:/program files/microchip/xc32/v4.60/bin/bin/../../lib/gcc/pic32c/8.3.1/../../../../pic32c/lib/thumb/v7-a+simd/hard\libg-musl.a(fwrite.o)
                              c:/program files/microchip/xc32/v4.60/bin/bin/../../lib/gcc/pic32c/8.3.1/../../../../pic32c/lib/thumb/v7-a+simd/hard\libg-musl.a(fputs.o) (fwrite)
c:/program files/microchip/xc32/v4.60/bin/bin/../../lib/gcc/pic32c/8.3.1/../../../../pic32c/lib/thumb/v7-a+simd/hard\libg-musl.a(putc.o)
                              c:/program files/microchip/xc32/v4.60/bin/bin/../../lib/gcc/pic32c/8.3.1/../../../../pic32c/lib/thumb/v7-a+simd/hard\libg-musl.a(puts.o) (putc_unlocked)
c:/program files/microchip/xc32/v4.60/bin/bin/../../lib/gcc/pic32c/8.3.1/../../../../pic32c/lib/thumb/v7-a+simd/hard\libg-musl.a(setvbuf.o)
                              c:/program files/microchip/xc32/v4.60/bin/bin/../../lib/gcc/pic32c/8.3.1/../../../../pic32c/lib/thumb/v7-a+simd/hard\libg-musl.a(setbuf.o) (setvbuf)
c:/program files/microchip/xc32/v4.60/bin/bin/../../lib/gcc/pic32c/8.3.1/../../../../pic32c/lib/thumb/v7-a+simd/hard\libg-musl.a(readv.o)
                              c:/program files/microchip/xc32/v4.60/bin/bin/../../lib/gcc/pic32c/8.3.1/../../../../pic32c/lib/thumb/v7-a+simd/hard\libg-musl.a(__stdio_read.o) (readv)
c:/program files/microchip/xc32/v4.60/bin/bin/../../lib/gcc/pic32c/8.3.1/../../../../pic32c/lib/thumb/v7-a+simd/hard\libg-musl.a(__fopen_rw.o)
                              c:/program files/microchip/xc32/v4.60/bin/bin/../../lib/gcc/pic32c/8.3.1/../../../../pic32c/lib/thumb/v7-a+simd/hard\libg-musl.a(__io_rw_needed.o) (__fopen_rw_needed)
c:/program files/microchip/xc32/v4.60/bin/bin/../../lib/gcc/pic32c/8.3.1/../../../../pic32c/lib/thumb/v7-a+simd/hard\libg-musl.a(__ftello_rw.o)
                              c:/program files/microchip/xc32/v4.60/bin/bin/../../lib/gcc/pic32c/8.3.1/../../../../pic32c/lib/thumb/v7-a+simd/hard\libg-musl.a(__io_rw_needed.o) (__ftello_adj_rw_needed)
c:/program files/microchip/xc32/v4.60/bin/bin/../../lib/gcc/pic32c/8.3.1/../../../../pic32c/lib/thumb/v7-a+simd/hard\libg-musl.a(__init_stdio.o)
                              c:/program files/microchip/xc32/v4.60/bin/bin/../../lib/gcc/pic32c/8.3.1/../../../../pic32c/lib/thumb/v7-a+simd/hard\libg-musl.a(__io_init_needed.o) (__init_stdio_needed)
c:/program files/microchip/xc32/v4.60/bin/bin/../../lib/gcc/pic32c/8.3.1/../../../../pic32c/lib/thumb/v7-a+simd/hard\libg-musl.a(__io_buf_needed.o)
                              c:/program files/microchip/xc32/v4.60/bin/bin/../../lib/gcc/pic32c/8.3.1/../../../../pic32c/lib/thumb/v7-a+simd/hard\libg-musl.a(__io_rw_needed.o) (__io_buf_needed)
c:/program files/microchip/xc32/v4.60/bin/bin/../../lib/gcc/pic32c/8.3.1/../../../../pic32c/lib/thumb/v7-a+simd/hard\libg-musl.a(__io_file_needed.o)
                              c:/program files/microchip/xc32/v4.60/bin/bin/../../lib/gcc/pic32c/8.3.1/../../../../pic32c/lib/thumb/v7-a+simd/hard\libg-musl.a(__io_init_needed.o) (__io_file_needed)
c:/program files/microchip/xc32/v4.60/bin/bin/../../lib/gcc/pic32c/8.3.1/../../../../pic32c/lib/thumb/v7-a+simd/hard\libg-musl.a(__io_std_needed.o)
                              c:/program files/microchip/xc32/v4.60/bin/bin/../../lib/gcc/pic32c/8.3.1/../../../../pic32c/lib/thumb/v7-a+simd/hard\libg-musl.a(__io_buf_needed.o) (__io_std_needed)
c:/program files/microchip/xc32/v4.60/bin/bin/../../lib/gcc/pic32c/8.3.1/../../../../pic32c/lib/thumb/v7-a+simd/hard\libg-musl.a(__out.o)
                              c:/program files/microchip/xc32/v4.60/bin/bin/../../lib/gcc/pic32c/8.3.1/../../../../pic32c/lib/thumb/v7-a+simd/hard\libg-musl.a(__fopen_rw.o) (__stdio_write_unbuffered)
c:/program files/microchip/xc32/v4.60/bin/bin/../../lib/gcc/pic32c/8.3.1/../../../../pic32c/lib/thumb/v7-a+simd/hard\libg-musl.a(__putc.o)
                              c:/program files/microchip/xc32/v4.60/bin/bin/../../lib/gcc/pic32c/8.3.1/../../../../pic32c/lib/thumb/v7-a+simd/hard\libg-musl.a(__io_buf_needed.o) (__putc_needed)
c:/program files/microchip/xc32/v4.60/bin/bin/../../lib/gcc/pic32c/8.3.1/../../../../pic32c/lib/thumb/v7-a+simd/hard\libg-musl.a(__stderr.o)
                              c:/program files/microchip/xc32/v4.60/bin/bin/../../lib/gcc/pic32c/8.3.1/../../../../pic32c/lib/thumb/v7-a+simd/hard\libg-musl.a(__io_std_needed.o) (__init_stderr_needed)
c:/program files/microchip/xc32/v4.60/bin/bin/../../lib/gcc/pic32c/8.3.1/../../../../pic32c/lib/thumb/v7-a+simd/hard\libg-musl.a(__stdio_close.o)
                              c:/program files/microchip/xc32/v4.60/bin/bin/../../lib/gcc/pic32c/8.3.1/../../../../pic32c/lib/thumb/v7-a+simd/hard\libg-musl.a(__fopen_rw.o) (__stdio_close_rw)
c:/program files/microchip/xc32/v4.60/bin/bin/../../lib/gcc/pic32c/8.3.1/../../../../pic32c/lib/thumb/v7-a+simd/hard\libg-musl.a(__stdio_exit.o)
                              c:/program files/microchip/xc32/v4.60/bin/bin/../../lib/gcc/pic32c/8.3.1/../../../../pic32c/lib/thumb/v7-a+simd/hard\libg-musl.a(__io_buf_needed.o) (__stdio_exit_needed)
c:/program files/microchip/xc32/v4.60/bin/bin/../../lib/gcc/pic32c/8.3.1/../../../../pic32c/lib/thumb/v7-a+simd/hard\libg-musl.a(__stdio_write.o)
                              c:/program files/microchip/xc32/v4.60/bin/bin/../../lib/gcc/pic32c/8.3.1/../../../../pic32c/lib/thumb/v7-a+simd/hard\libg-musl.a(setvbuf.o) (__stdio_write_buffered)
c:/program files/microchip/xc32/v4.60/bin/bin/../../lib/gcc/pic32c/8.3.1/../../../../pic32c/lib/thumb/v7-a+simd/hard\libg-musl.a(__stdout.o)
                              c:/program files/microchip/xc32/v4.60/bin/bin/../../lib/gcc/pic32c/8.3.1/../../../../pic32c/lib/thumb/v7-a+simd/hard\libg-musl.a(__io_std_needed.o) (__init_stdout_needed)
c:/program files/microchip/xc32/v4.60/bin/bin/../../lib/gcc/pic32c/8.3.1/../../../../pic32c/lib/thumb/v7-a+simd/hard\libg-musl.a(__towrite.o)
                              c:/program files/microchip/xc32/v4.60/bin/bin/../../lib/gcc/pic32c/8.3.1/../../../../pic32c/lib/thumb/v7-a+simd/hard\libg-musl.a(__stdio_write.o) (__towrite)
c:/program files/microchip/xc32/v4.60/bin/bin/../../lib/gcc/pic32c/8.3.1/../../../../pic32c/lib/thumb/v7-a+simd/hard\libg-musl.a(writev.o)
                              c:/program files/microchip/xc32/v4.60/bin/bin/../../lib/gcc/pic32c/8.3.1/../../../../pic32c/lib/thumb/v7-a+simd/hard\libg-musl.a(__stdio_write.o) (writev)
c:/program files/microchip/xc32/v4.60/bin/bin/../../lib/gcc/pic32c/8.3.1/../../../../pic32c/lib/thumb/v7-a+simd/hard\libg-musl.a(__overflow.o)
                              c:/program files/microchip/xc32/v4.60/bin/bin/../../lib/gcc/pic32c/8.3.1/../../../../pic32c/lib/thumb/v7-a+simd/hard\libg-musl.a(__putc.o) (__overflow)
c:/program files/microchip/xc32/v4.60/bin/bin/../../lib/gcc/pic32c/8.3.1/../../../../pic32c/lib/thumb/v7-a+simd/hard\libg-musl.a(__fclose.o)
                              c:/program files/microchip/xc32/v4.60/bin/bin/../../lib/gcc/pic32c/8.3.1/../../../../pic32c/lib/thumb/v7-a+simd/hard\libg-musl.a(__io_buf_needed.o) (__fclose_needed)
c:/program files/microchip/xc32/v4.60/bin/bin/../../lib/gcc/pic32c/8.3.1/../../../../pic32c/lib/thumb/v7-a+simd/hard\libg-musl.a(__fopen.o)
                              c:/program files/microchip/xc32/v4.60/bin/bin/../../lib/gcc/pic32c/8.3.1/../../../../pic32c/lib/thumb/v7-a+simd/hard\libg-musl.a(__io_std_needed.o) (__fopen_needed)
c:/program files/microchip/xc32/v4.60/bin/bin/../../lib/gcc/pic32c/8.3.1/../../../../pic32c/lib/thumb/v7-a+simd/hard\libg-musl.a(__fseeko.o)
                              c:/program files/microchip/xc32/v4.60/bin/bin/../../lib/gcc/pic32c/8.3.1/../../../../pic32c/lib/thumb/v7-a+simd/hard\libg-musl.a(__io_buf_needed.o) (__fseeko_needed)
c:/program files/microchip/xc32/v4.60/bin/bin/../../lib/gcc/pic32c/8.3.1/../../../../pic32c/lib/thumb/v7-a+simd/hard\libg-musl.a(__ftello.o)
                              c:/program files/microchip/xc32/v4.60/bin/bin/../../lib/gcc/pic32c/8.3.1/../../../../pic32c/lib/thumb/v7-a+simd/hard\libg-musl.a(__io_buf_needed.o) (__ftello_adj_needed)
c:/program files/microchip/xc32/v4.60/bin/bin/../../lib/gcc/pic32c/8.3.1/../../../../pic32c/lib/thumb/v7-a+simd/hard\libg-musl.a(__fwrite.o)
                              c:/program files/microchip/xc32/v4.60/bin/bin/../../lib/gcc/pic32c/8.3.1/../../../../pic32c/lib/thumb/v7-a+simd/hard\libg-musl.a(__io_std_needed.o) (__fwrite_needed)
c:/program files/microchip/xc32/v4.60/bin/bin/../../lib/gcc/pic32c/8.3.1/../../../../pic32c/lib/thumb/v7-a+simd/hard\libpic32c.a(close.o)
                              c:/program files/microchip/xc32/v4.60/bin/bin/../../lib/gcc/pic32c/8.3.1/../../../../pic32c/lib/thumb/v7-a+simd/hard\libg-musl.a(__stdio_close.o) (close)
c:/program files/microchip/xc32/v4.60/bin/bin/../../lib/gcc/pic32c/8.3.1/../../../../pic32c/lib/thumb/v7-a+simd/hard\libpic32c.a(lseek.o)
                              c:/program files/microchip/xc32/v4.60/bin/bin/../../lib/gcc/pic32c/8.3.1/../../../../pic32c/lib/thumb/v7-a+simd/hard\libg-musl.a(__stdio_close.o) (lseek)
c:/program files/microchip/xc32/v4.60/bin/bin/../../lib/gcc/pic32c/8.3.1/../../../../pic32c/lib/thumb/v7-a+simd/hard\libpic32c.a(sbrk.o)
                              c:/program files/microchip/xc32/v4.60/bin/bin/../../lib/gcc/pic32c/8.3.1/../../../../pic32c/lib/thumb/v7-a+simd/hard\liblmalloc-musl.a(lite_malloc.o) (_get_heap_left_space)

Microchip PIC32 Memory-Usage Report
        --------------------------------------------------------------------------
         Total Program Memory used  :           0           0  
        --------------------------------------------------------------------------


RAM Data-Memory Usage
section                    address  length [bytes]      (dec)  Description
-------                 ----------  -------------------------  -----------
.text                   0x23f00000        0x2c048      180296   
.data                   0x23f2c048          0x288         648  Initialized data 
.ARM.exidx              0x23f2c2d0            0x8           8   
.relocate               0x23f2c2d8           0x3c          60   
.region_cache_aligned_c 0x23f2c314            0xc          12   
.bss                    0x23f30000        0x8c778      575352  Uninitialized data 
.region_cache_aligned   0x23fbc778            0x8           8   
.stacks                 0x23fbc780         0x2140        8512   
         Total RAM used  :     0xbabe0      764896  0.7% of 0x7000000
        --------------------------------------------------------------------------
            Total Data Memory used  :     0xbabe0      764896  0.7% of 0x7000000
        --------------------------------------------------------------------------


Dynamic Data-Memory Reservation
section                    address  length [bytes]      (dec)  Description
-------                 ----------  -------------------------  -----------
heap                    0x23fbe8c8          0x200         512  Reserved for heap 
stack                   0x23fbeae0      0x4041518    67376408  Reserved for stack 

        --------------------------------------------------------------------------

Microchip PIC32 Memory-Usage Report By Module

        text        data         bss         dec         hex    basename                  filename
--------------------------------------------------------------------------------
        2700           4      541110      543814       84c46    app.o                 build/default/debug/_ext/1360937237/app.o
       60916           0        1143       62059        f26b    ff.o                  build/default/debug/_ext/411819097/ff.o
       19116          84       23432       42632        a688    drv_usb_ohci.o        build/default/debug/_ext/1535495969/drv_usb_ohci.o
       19756          84       17164       37004        908c    drv_usb_ehci.o        build/default/debug/_ext/1535495969/drv_usb_ehci.o
       23516           0        2224       25740        648c    usb_host.o            build/default/debug/_ext/308758920/usb_host.o
        2228           0       16384       18612        48b4    plib_mmu.o            build/default/debug/_ext/60175171/plib_mmu.o
        7868          44        2639       10551        2937    sys_fs_media_manager.obuild/default/debug/_ext/1269487135/sys_fs_media_manager.o
        7600          48         468        8116        1fb4    usb_host_scsi.o       build/default/debug/_ext/308758920/usb_host_scsi.o
        6272          44         148        6464        1940    usb_host_msd.o        build/default/debug/_ext/308758920/usb_host_msd.o
        5944           0         338        6282        188a    sys_fs.o              build/default/debug/_ext/1269487135/sys_fs.o
        4464           0        1409        5873        16f1    sys_fs_fat_interface.obuild/default/debug/_ext/1269487135/sys_fs_fat_interface.o
        5200           2         224        5426        1532    sys_time.o            build/default/debug/_ext/101884895/sys_time.o
        2140           0         544        2684         a7c    diskio.o              build/default/debug/_ext/565198302/diskio.o
        1812           0           0        1812         714    ffunicode.o           build/default/debug/_ext/411819097/ffunicode.o
           4         108        1032        1144         478    stdin.o               libg-musl.a
        1000           0           0        1000         3e8    __printf_core.o       libg-musl.a
         876           0           0         876         36c    plib_clk.o            build/default/debug/_ext/60165520/plib_clk.o
         720          32           0         752         2f0    plib_aic.o            build/default/debug/_ext/60163497/plib_aic.o
         720           0           0         720         2d0    sys_int.o             build/default/debug/_ext/1881668453/sys_int.o
         608          64          16         688         2b0    initialization.o      build/default/debug/_ext/1171490990/initialization.o
         672           0           0         672         2a0    plib_uart1.o          build/default/debug/_ext/1865657120/plib_uart1.o
         564           0           0         564         234    cstartup.o            build/default/debug/_ext/1171490990/cstartup.o
         552           0           8         560         230    plib_tc0.o            build/default/debug/_ext/829342655/plib_tc0.o
         464           0           0         464         1d0    plib_pio.o            build/default/debug/_ext/60177924/plib_pio.o
         300           0           0         300         12c    _udivmoddi4.o         libgcc.a
         250           0           0         250          fa    __stdio_write.o       libg-musl.a
         228           0           0         228          e4    xc32_monitor.o        build/default/debug/_ext/163028504/xc32_monitor.o
         224           0           4         228          e4    lite_free.o           liblmalloc-musl.a
         224           0           0         224          e0    _divsi3.o             libgcc.a
         192           0           0         192          c0    main.o                build/default/debug/_ext/1360937237/main.o
         172           0           0         172          ac    _udivsi3.o            libgcc.a
         172           0           0         172          ac    __pop_int.o           libg-musl.a
         172           0           0         172          ac    plib_matrix.o         build/default/debug/_ext/1666157715/plib_matrix.o
         168           0           0         168          a8    __fmt_d.o             libg-musl.a
         156           0          12         168          a8    sbrk.o                libpic32c.a
         132           0           0         132          84    __cvt_u.o             libg-musl.a
         124           0           0         124          7c    __pop_ptr.o           libg-musl.a
           8          96           0         104          68    __stdout.o            libg-musl.a
          72           0          28         100          64    crtbegin.o            c:/program files/microchip/xc32/v4.60/bin/bin/../../lib/gcc/pic32c/8.3.1/thumb/v7-a+simd/hard/crtbegin.o
          96           4           0         100          64    lite_malloc.o         liblmalloc-musl.a
          96           0           0          96          60    strchrnul.o           libc-size-musl.a
          96           0           0          96          60    __stdio_read.o        libg-musl.a
          94           0           0          94          5e    __libc_start_main.o   libg-musl.a
          92           0           0          92          5c    __stdio_close.o       libg-musl.a
          88           0           0          88          58    bsp.o                 build/default/debug/_ext/1434821282/bsp.o
          84           0           0          84          54    tasks.o               build/default/debug/_ext/1171490990/tasks.o
           0           0          80          80          50    libc.o                libg-musl.a
          78           0           0          78          4e    __overflow.o          libg-musl.a
          76           0           0          76          4c    setvbuf.o             libg-musl.a
          68           0           0          68          44    atoi.o                libg-musl.a
          66           0           0          66          42    __out.o               libg-musl.a
          64           0           0          64          40    putc.o                libg-musl.a
          64           0           0          64          40    memmove.o             libc-size-musl.a
          62           0           0          62          3e    __putc.o              libg-musl.a
          20          32           8          60          3c    stdout.o              libg-musl.a
          52           0           4          56          38    interrupts.o          build/default/debug/_ext/1171490990/interrupts.o
          48           0           0          48          30    fault_handlers.o      build/default/debug/_ext/1171490990/fault_handlers.o
          48           0           0          48          30    _aeabi_uldivmod.o     libgcc.a
          46           0           0          46          2e    fwrite.o              libg-musl.a
          44           0           0          44          2c    usb_host_init_data.o  build/default/debug/_ext/1171490990/usb_host_init_data.o
          42           0           0          42          2a    __pop_float.o         libg-musl.a
          42           0           0          42          2a    readv.o               libg-musl.a
          42           0           0          42          2a    writev.o              libg-musl.a
          40           0           0          40          28    __towrite_rw.o        libg-musl.a
          40           0           0          40          28    strncmp.o             libc-size-musl.a
          40           0           0          40          28    puts.o                libg-musl.a
          36           0           0          36          24    __sio_printf_dn.o     libg-musl.a
          34           0           0          34          22    fputs.o               libg-musl.a
          28           0           0          28          1c    memcmp.o              libc-size-musl.a
          28           0           0          28          1c    memcpy.o              libc-size-musl.a
          28           0           0          28          1c    __int_vfprintf.o      libg-musl.a
          24           0           0          24          18    __towrite.o           libg-musl.a
          24           0           0          24          18    strlen.o              libc-size-musl.a
          24           0           0          24          18    __fwrite.o            libg-musl.a
          22           0           0          22          16    expand_heap.o         libg-musl.a
          22           0           0          22          16    strcmp.o              libc-size-musl.a
          20           0           0          20          14    memset.o              libc-size-musl.a
          20           0           0          20          14    strchr.o              libc-size-musl.a
          18           0           0          18          12    __init_stdio.o        libg-musl.a
          16           0           0          16          10    setbuf.o              libg-musl.a
          16           0           0          16          10    crtn.o                c:/program files/microchip/xc32/v4.60/bin/bin/../../lib/gcc/pic32c/8.3.1/thumb/v7-a+simd/hard/crtn.o
          14           0           0          14           e    tolower.o             libg-musl.a
           8           0           0           8           8    linker stubs          linker stubs
           8           0           0           8           8    crti.o                c:/program files/microchip/xc32/v4.60/bin/bin/../../lib/gcc/pic32c/8.3.1/thumb/v7-a+simd/hard/crti.o
           6           0           0           6           6    close.o               libpic32c.a
           4           0           0           4           4    _dvmd_tls.o           libgcc.a
           0           0           4           4           4    __environ.o           libg-musl.a
           0           0           4           4           4    __errno_location.o    libg-musl.a
           4           0           0           4           4    lseek.o               libpic32c.a
           2           0           0           2           2    __stderr.o            libg-musl.a
           0           0        8532        8532        2154    misc                  misc
           0           0           0        8487        2127    padding               padding
--------------------------------------------------------------------------------
      180340         646      616959      806432       c4e20    dist/default/debug/coco_ssd_MobilenetV1quant_300_300.X.debug.elf


Discarded input sections

 .text          0x0000000000000000        0x0 c:/program files/microchip/xc32/v4.60/bin/bin/../../lib/gcc/pic32c/8.3.1/thumb/v7-a+simd/hard/crti.o
 .data          0x0000000000000000        0x0 c:/program files/microchip/xc32/v4.60/bin/bin/../../lib/gcc/pic32c/8.3.1/thumb/v7-a+simd/hard/crti.o
 .bss           0x0000000000000000        0x0 c:/program files/microchip/xc32/v4.60/bin/bin/../../lib/gcc/pic32c/8.3.1/thumb/v7-a+simd/hard/crti.o
 .xc_stack_usage.hdr
                0x0000000000000000        0xe c:/program files/microchip/xc32/v4.60/bin/bin/../../lib/gcc/pic32c/8.3.1/thumb/v7-a+simd/hard/crti.o
 .xc_stack_usage
                0x0000000000000000       0x26 c:/program files/microchip/xc32/v4.60/bin/bin/../../lib/gcc/pic32c/8.3.1/thumb/v7-a+simd/hard/crti.o
 .data          0x0000000000000000        0x4 c:/program files/microchip/xc32/v4.60/bin/bin/../../lib/gcc/pic32c/8.3.1/thumb/v7-a+simd/hard/crtbegin.o
 .xc_stack_usage
                0x0000000000000000       0x3c c:/program files/microchip/xc32/v4.60/bin/bin/../../lib/gcc/pic32c/8.3.1/thumb/v7-a+simd/hard/crtbegin.o
 .xc_stack_usage.hdr
                0x0000000000000000        0xe c:/program files/microchip/xc32/v4.60/bin/bin/../../lib/gcc/pic32c/8.3.1/thumb/v7-a+simd/hard/crtbegin.o
 .text          0x0000000000000000        0x0 build/default/debug/_ext/1881668453/sys_int.o
 .data          0x0000000000000000        0x0 build/default/debug/_ext/1881668453/sys_int.o
 .bss           0x0000000000000000        0x0 build/default/debug/_ext/1881668453/sys_int.o
 .text.SYS_INT_IsEnabled
                0x0000000000000000       0x48 build/default/debug/_ext/1881668453/sys_int.o
 .text.SYS_INT_SourceStatusGet
                0x0000000000000000      0x114 build/default/debug/_ext/1881668453/sys_int.o
 .text.SYS_INT_SourceStatusSet
                0x0000000000000000       0x64 build/default/debug/_ext/1881668453/sys_int.o
 .text          0x0000000000000000        0x0 build/default/debug/_ext/1014039709/sys_cache.o
 .data          0x0000000000000000        0x0 build/default/debug/_ext/1014039709/sys_cache.o
 .bss           0x0000000000000000        0x0 build/default/debug/_ext/1014039709/sys_cache.o
 .text.SYS_CACHE_EnableCaches
                0x0000000000000000       0x18 build/default/debug/_ext/1014039709/sys_cache.o
 .text.SYS_CACHE_DisableCaches
                0x0000000000000000       0x18 build/default/debug/_ext/1014039709/sys_cache.o
 .text.SYS_CACHE_EnableICache
                0x0000000000000000       0x14 build/default/debug/_ext/1014039709/sys_cache.o
 .text.SYS_CACHE_DisableICache
                0x0000000000000000       0x14 build/default/debug/_ext/1014039709/sys_cache.o
 .text.SYS_CACHE_InvalidateICache
                0x0000000000000000       0x34 build/default/debug/_ext/1014039709/sys_cache.o
 .text.SYS_CACHE_EnableDCache
                0x0000000000000000       0x14 build/default/debug/_ext/1014039709/sys_cache.o
 .text.SYS_CACHE_DisableDCache
                0x0000000000000000       0x14 build/default/debug/_ext/1014039709/sys_cache.o
 .text.SYS_CACHE_InvalidateDCache
                0x0000000000000000       0x14 build/default/debug/_ext/1014039709/sys_cache.o
 .text.SYS_CACHE_CleanDCache
                0x0000000000000000       0x14 build/default/debug/_ext/1014039709/sys_cache.o
 .text.SYS_CACHE_CleanInvalidateDCache
                0x0000000000000000       0x14 build/default/debug/_ext/1014039709/sys_cache.o
 .text.SYS_CACHE_InvalidateDCache_by_Addr
                0x0000000000000000       0x2c build/default/debug/_ext/1014039709/sys_cache.o
 .text.SYS_CACHE_CleanDCache_by_Addr
                0x0000000000000000       0x2c build/default/debug/_ext/1014039709/sys_cache.o
 .text.SYS_CACHE_CleanInvalidateDCache_by_Addr
                0x0000000000000000       0x2c build/default/debug/_ext/1014039709/sys_cache.o
 .debug_info    0x0000000000000000      0x2c8 build/default/debug/_ext/1014039709/sys_cache.o
 .debug_abbrev  0x0000000000000000      0x125 build/default/debug/_ext/1014039709/sys_cache.o
 .debug_loc     0x0000000000000000      0x278 build/default/debug/_ext/1014039709/sys_cache.o
 .debug_aranges
                0x0000000000000000       0x80 build/default/debug/_ext/1014039709/sys_cache.o
 .debug_ranges  0x0000000000000000       0x70 build/default/debug/_ext/1014039709/sys_cache.o
 .debug_line    0x0000000000000000      0x23b build/default/debug/_ext/1014039709/sys_cache.o
 .debug_str     0x0000000000000000      0x451 build/default/debug/_ext/1014039709/sys_cache.o
 .comment       0x0000000000000000       0x2c build/default/debug/_ext/1014039709/sys_cache.o
 .debug_frame   0x0000000000000000      0x18c build/default/debug/_ext/1014039709/sys_cache.o
 .ARM.attributes
                0x0000000000000000       0x39 build/default/debug/_ext/1014039709/sys_cache.o
 .text          0x0000000000000000        0x0 build/default/debug/_ext/1434821282/bsp.o
 .data          0x0000000000000000        0x0 build/default/debug/_ext/1434821282/bsp.o
 .bss           0x0000000000000000        0x0 build/default/debug/_ext/1434821282/bsp.o
 .data          0x0000000000000000        0x0 build/default/debug/_ext/1171490990/cstartup.o
 .bss           0x0000000000000000        0x0 build/default/debug/_ext/1171490990/cstartup.o
 .text          0x0000000000000000        0x0 build/default/debug/_ext/1535495969/drv_usb_ohci.o
 .data          0x0000000000000000        0x0 build/default/debug/_ext/1535495969/drv_usb_ohci.o
 .bss           0x0000000000000000        0x0 build/default/debug/_ext/1535495969/drv_usb_ohci.o
 .text.DRV_USB_OHCI_Deinitialize
                0x0000000000000000      0x118 build/default/debug/_ext/1535495969/drv_usb_ohci.o
 .text.DRV_USB_OHCI_Status
                0x0000000000000000       0x88 build/default/debug/_ext/1535495969/drv_usb_ohci.o
 .text          0x0000000000000000        0x0 build/default/debug/_ext/1171490990/initialization.o
 .data          0x0000000000000000        0x0 build/default/debug/_ext/1171490990/initialization.o
 .bss           0x0000000000000000        0x0 build/default/debug/_ext/1171490990/initialization.o
 .text          0x0000000000000000        0x0 build/default/debug/_ext/1171490990/tasks.o
 .data          0x0000000000000000        0x0 build/default/debug/_ext/1171490990/tasks.o
 .bss           0x0000000000000000        0x0 build/default/debug/_ext/1171490990/tasks.o
 .text          0x0000000000000000        0x0 build/default/debug/_ext/60163497/plib_aic.o
 .data          0x0000000000000000        0x0 build/default/debug/_ext/60163497/plib_aic.o
 .bss           0x0000000000000000        0x0 build/default/debug/_ext/60163497/plib_aic.o
 .text.aicInstanceGet
                0x0000000000000000       0x2c build/default/debug/_ext/60163497/plib_aic.o
 .text.AIC_INT_IsInterruptEnabled
                0x0000000000000000       0x80 build/default/debug/_ext/60163497/plib_aic.o
 .text.AIC_INT_SourceDisable
                0x0000000000000000       0x84 build/default/debug/_ext/60163497/plib_aic.o
 .text.AIC_INT_SourceRestore
                0x0000000000000000       0x80 build/default/debug/_ext/60163497/plib_aic.o
 .text          0x0000000000000000        0x0 build/default/debug/_ext/1666157715/plib_matrix.o
 .data          0x0000000000000000        0x0 build/default/debug/_ext/1666157715/plib_matrix.o
 .bss           0x0000000000000000        0x0 build/default/debug/_ext/1666157715/plib_matrix.o
 .text          0x0000000000000000        0x0 build/default/debug/_ext/829342655/plib_tc0.o
 .data          0x0000000000000000        0x0 build/default/debug/_ext/829342655/plib_tc0.o
 .bss           0x0000000000000000        0x0 build/default/debug/_ext/829342655/plib_tc0.o
 .text.TC0_CH0_TimerPeriodGet
                0x0000000000000000       0x24 build/default/debug/_ext/829342655/plib_tc0.o
 .text          0x0000000000000000        0x0 build/default/debug/_ext/308758920/usb_host.o
 .data          0x0000000000000000        0x0 build/default/debug/_ext/308758920/usb_host.o
 .bss           0x0000000000000000        0x0 build/default/debug/_ext/308758920/usb_host.o
 .text.USB_HOST_Status
                0x0000000000000000       0x4c build/default/debug/_ext/308758920/usb_host.o
 .text.USB_HOST_Deinitialize
                0x0000000000000000       0x40 build/default/debug/_ext/308758920/usb_host.o
 .text.USB_HOST_DeviceGetFirst
                0x0000000000000000      0x138 build/default/debug/_ext/308758920/usb_host.o
 .text.USB_HOST_DeviceGetNext
                0x0000000000000000      0x148 build/default/debug/_ext/308758920/usb_host.o
 .text.USB_HOST_DeviceSpeedGet
                0x0000000000000000       0xd0 build/default/debug/_ext/308758920/usb_host.o
 .text.USB_HOST_BusDisable
                0x0000000000000000       0xfc build/default/debug/_ext/308758920/usb_host.o
 .text.USB_HOST_BusIsDisabled
                0x0000000000000000       0xe8 build/default/debug/_ext/308758920/usb_host.o
 .text.USB_HOST_BusSuspend
                0x0000000000000000      0x124 build/default/debug/_ext/308758920/usb_host.o
 .text.USB_HOST_BusIsSuspended
                0x0000000000000000      0x120 build/default/debug/_ext/308758920/usb_host.o
 .text.USB_HOST_BusResume
                0x0000000000000000       0x30 build/default/debug/_ext/308758920/usb_host.o
 .text.USB_HOST_DeviceRelease
                0x0000000000000000       0xd0 build/default/debug/_ext/308758920/usb_host.o
 .text.USB_HOST_DeviceConfigurationSet
                0x0000000000000000      0x158 build/default/debug/_ext/308758920/usb_host.o
 .text.USB_HOST_DeviceInterfaceSet
                0x0000000000000000      0x33c build/default/debug/_ext/308758920/usb_host.o
 .text.USB_HOST_DeviceStringDescriptorGet
                0x0000000000000000      0x39c build/default/debug/_ext/308758920/usb_host.o
 .text.USB_HOST_OverCurrentDetected
                0x0000000000000000       0x64 build/default/debug/_ext/308758920/usb_host.o
 .text.USB_HOST_DeviceConfigurationDescriptorGet
                0x0000000000000000      0x300 build/default/debug/_ext/308758920/usb_host.o
 .text          0x0000000000000000        0x0 build/default/debug/_ext/1360937237/app.o
 .data          0x0000000000000000        0x0 build/default/debug/_ext/1360937237/app.o
 .bss           0x0000000000000000        0x0 build/default/debug/_ext/1360937237/app.o
 .text          0x0000000000000000        0x0 build/default/debug/_ext/1269487135/sys_fs_fat_interface.o
 .data          0x0000000000000000        0x0 build/default/debug/_ext/1269487135/sys_fs_fat_interface.o
 .bss           0x0000000000000000        0x0 build/default/debug/_ext/1269487135/sys_fs_fat_interface.o
 .text.FATFS_getfree
                0x0000000000000000       0x40 build/default/debug/_ext/1269487135/sys_fs_fat_interface.o
 .text          0x0000000000000000        0x0 build/default/debug/_ext/411819097/ff.o
 .data          0x0000000000000000        0x0 build/default/debug/_ext/411819097/ff.o
 .bss           0x0000000000000000        0x0 build/default/debug/_ext/411819097/ff.o
 .text          0x0000000000000000        0x0 build/default/debug/_ext/1360937237/main.o
 .data          0x0000000000000000        0x0 build/default/debug/_ext/1360937237/main.o
 .bss           0x0000000000000000        0x0 build/default/debug/_ext/1360937237/main.o
 .text          0x0000000000000000        0x0 build/default/debug/_ext/308758920/usb_host_scsi.o
 .data          0x0000000000000000        0x0 build/default/debug/_ext/308758920/usb_host_scsi.o
 .bss           0x0000000000000000        0x0 build/default/debug/_ext/308758920/usb_host_scsi.o
 .text.USB_HOST_SCSI_MSDLUNHandleGet
                0x0000000000000000       0x7c build/default/debug/_ext/308758920/usb_host_scsi.o
 .text.USB_HOST_SCSI_AttachEventHandlerSet
                0x0000000000000000       0xe4 build/default/debug/_ext/308758920/usb_host_scsi.o
 .text          0x0000000000000000        0x0 build/default/debug/_ext/308758920/usb_host_msd.o
 .data          0x0000000000000000        0x0 build/default/debug/_ext/308758920/usb_host_msd.o
 .bss           0x0000000000000000        0x0 build/default/debug/_ext/308758920/usb_host_msd.o
 .text          0x0000000000000000        0x0 build/default/debug/_ext/1535495969/drv_usb_ehci.o
 .data          0x0000000000000000        0x0 build/default/debug/_ext/1535495969/drv_usb_ehci.o
 .bss           0x0000000000000000        0x0 build/default/debug/_ext/1535495969/drv_usb_ehci.o
 .text.DRV_USB_EHCI_Deinitialize
                0x0000000000000000      0x148 build/default/debug/_ext/1535495969/drv_usb_ehci.o
 .text.DRV_USB_EHCI_Status
                0x0000000000000000       0x88 build/default/debug/_ext/1535495969/drv_usb_ehci.o
 .text          0x0000000000000000        0x0 build/default/debug/_ext/1171490990/usb_host_init_data.o
 .data          0x0000000000000000        0x0 build/default/debug/_ext/1171490990/usb_host_init_data.o
 .bss           0x0000000000000000        0x0 build/default/debug/_ext/1171490990/usb_host_init_data.o
 .text          0x0000000000000000        0x0 build/default/debug/_ext/1171490990/fault_handlers.o
 .data          0x0000000000000000        0x0 build/default/debug/_ext/1171490990/fault_handlers.o
 .bss           0x0000000000000000        0x0 build/default/debug/_ext/1171490990/fault_handlers.o
 .text          0x0000000000000000        0x0 build/default/debug/_ext/60177924/plib_pio.o
 .data          0x0000000000000000        0x0 build/default/debug/_ext/60177924/plib_pio.o
 .bss           0x0000000000000000        0x0 build/default/debug/_ext/60177924/plib_pio.o
 .text.PIO_PortRead
                0x0000000000000000       0x38 build/default/debug/_ext/60177924/plib_pio.o
 .text.PIO_PortWrite
                0x0000000000000000       0x58 build/default/debug/_ext/60177924/plib_pio.o
 .text.PIO_PortLatchRead
                0x0000000000000000       0x38 build/default/debug/_ext/60177924/plib_pio.o
 .text.PIO_PortSet
                0x0000000000000000       0x40 build/default/debug/_ext/60177924/plib_pio.o
 .text.PIO_PortClear
                0x0000000000000000       0x40 build/default/debug/_ext/60177924/plib_pio.o
 .text.PIO_PortToggle
                0x0000000000000000       0x70 build/default/debug/_ext/60177924/plib_pio.o
 .text.PIO_PortInputEnable
                0x0000000000000000       0x6c build/default/debug/_ext/60177924/plib_pio.o
 .text.PIO_PortOutputEnable
                0x0000000000000000       0x6c build/default/debug/_ext/60177924/plib_pio.o
 .text          0x0000000000000000        0x0 build/default/debug/_ext/1269487135/sys_fs_media_manager.o
 .data          0x0000000000000000        0x0 build/default/debug/_ext/1269487135/sys_fs_media_manager.o
 .bss           0x0000000000000000        0x0 build/default/debug/_ext/1269487135/sys_fs_media_manager.o
 .text.SYS_FS_MEDIA_MANAGER_Read
                0x0000000000000000      0x104 build/default/debug/_ext/1269487135/sys_fs_media_manager.o
 .text.SYS_FS_MEDIA_MANAGER_AddressGet
                0x0000000000000000       0x7c build/default/debug/_ext/1269487135/sys_fs_media_manager.o
 .text.SYS_FS_MEDIA_MANAGER_CommandStatusGet
                0x0000000000000000       0x9c build/default/debug/_ext/1269487135/sys_fs_media_manager.o
 .text          0x0000000000000000        0x0 build/default/debug/_ext/1171490990/interrupts.o
 .data          0x0000000000000000        0x0 build/default/debug/_ext/1171490990/interrupts.o
 .bss           0x0000000000000000        0x0 build/default/debug/_ext/1171490990/interrupts.o
 .text          0x0000000000000000        0x0 build/default/debug/_ext/1269487135/sys_fs.o
 .data          0x0000000000000000        0x0 build/default/debug/_ext/1269487135/sys_fs.o
 .bss           0x0000000000000000        0x0 build/default/debug/_ext/1269487135/sys_fs.o
 .text.SYS_FS_StringWildCardCompare
                0x0000000000000000      0x154 build/default/debug/_ext/1269487135/sys_fs.o
 .text.SYS_FS_FileNameGet
                0x0000000000000000      0x110 build/default/debug/_ext/1269487135/sys_fs.o
 .text.SYS_FS_FileSeek
                0x0000000000000000      0x2c8 build/default/debug/_ext/1269487135/sys_fs.o
 .text.SYS_FS_FileTell
                0x0000000000000000      0x194 build/default/debug/_ext/1269487135/sys_fs.o
 .text.SYS_FS_FileEOF
                0x0000000000000000      0x174 build/default/debug/_ext/1269487135/sys_fs.o
 .text.SYS_FS_FileStat
                0x0000000000000000      0x1b8 build/default/debug/_ext/1269487135/sys_fs.o
 .text.SYS_FS_FileError
                0x0000000000000000       0x64 build/default/debug/_ext/1269487135/sys_fs.o
 .text.SYS_FS_DirOpen
                0x0000000000000000      0x2e4 build/default/debug/_ext/1269487135/sys_fs.o
 .text.SYS_FS_DirClose
                0x0000000000000000      0x1a0 build/default/debug/_ext/1269487135/sys_fs.o
 .text.SYS_FS_DirRead
                0x0000000000000000      0x1a8 build/default/debug/_ext/1269487135/sys_fs.o
 .text.SYS_FS_DirRewind
                0x0000000000000000      0x198 build/default/debug/_ext/1269487135/sys_fs.o
 .text.SYS_FS_DirSearch
                0x0000000000000000      0x2fc build/default/debug/_ext/1269487135/sys_fs.o
 .text.SYS_FS_FileStringGet
                0x0000000000000000      0x1b4 build/default/debug/_ext/1269487135/sys_fs.o
 .text.SYS_FS_DirectoryChange
                0x0000000000000000      0x1a4 build/default/debug/_ext/1269487135/sys_fs.o
 .text.SYS_FS_CurrentWorkingDirectoryGet
                0x0000000000000000      0x390 build/default/debug/_ext/1269487135/sys_fs.o
 .text.SYS_FS_CurrentDriveGet
                0x0000000000000000       0xc4 build/default/debug/_ext/1269487135/sys_fs.o
 .text.SYS_FS_DriveLabelGet
                0x0000000000000000      0x1ec build/default/debug/_ext/1269487135/sys_fs.o
 .text.SYS_FS_FileWrite
                0x0000000000000000      0x1ac build/default/debug/_ext/1269487135/sys_fs.o
 .text.SYS_FS_FileSync
                0x0000000000000000      0x194 build/default/debug/_ext/1269487135/sys_fs.o
 .text.SYS_FS_FileTruncate
                0x0000000000000000      0x168 build/default/debug/_ext/1269487135/sys_fs.o
 .text.SYS_FS_FileCharacterPut
                0x0000000000000000      0x1a8 build/default/debug/_ext/1269487135/sys_fs.o
 .text.SYS_FS_FileStringPut
                0x0000000000000000      0x1b0 build/default/debug/_ext/1269487135/sys_fs.o
 .text.SYS_FS_FilePrintf
                0x0000000000000000      0x1c0 build/default/debug/_ext/1269487135/sys_fs.o
 .text.SYS_FS_FileTestError
                0x0000000000000000      0x174 build/default/debug/_ext/1269487135/sys_fs.o
 .text.SYS_FS_DirectoryMake
                0x0000000000000000      0x1a4 build/default/debug/_ext/1269487135/sys_fs.o
 .text.SYS_FS_FileDirectoryRemove
                0x0000000000000000      0x1a4 build/default/debug/_ext/1269487135/sys_fs.o
 .text.SYS_FS_FileDirectoryModeSet
                0x0000000000000000      0x1b8 build/default/debug/_ext/1269487135/sys_fs.o
 .text.SYS_FS_FileDirectoryTimeSet
                0x0000000000000000      0x1e0 build/default/debug/_ext/1269487135/sys_fs.o
 .text.SYS_FS_FileDirectoryRenameMove
                0x0000000000000000      0x1f4 build/default/debug/_ext/1269487135/sys_fs.o
 .text.SYS_FS_CurrentDriveSet
                0x0000000000000000      0x200 build/default/debug/_ext/1269487135/sys_fs.o
 .text.SYS_FS_DriveLabelSet
                0x0000000000000000      0x204 build/default/debug/_ext/1269487135/sys_fs.o
 .text.SYS_FS_DriveFormat
                0x0000000000000000      0x184 build/default/debug/_ext/1269487135/sys_fs.o
 .text.SYS_FS_DrivePartition
                0x0000000000000000      0x19c build/default/debug/_ext/1269487135/sys_fs.o
 .text.SYS_FS_DriveSectorGet
                0x0000000000000000      0x208 build/default/debug/_ext/1269487135/sys_fs.o
 .text          0x0000000000000000        0x0 build/default/debug/_ext/163028504/xc32_monitor.o
 .data          0x0000000000000000        0x0 build/default/debug/_ext/163028504/xc32_monitor.o
 .bss           0x0000000000000000        0x0 build/default/debug/_ext/163028504/xc32_monitor.o
 .text          0x0000000000000000        0x0 build/default/debug/_ext/411819097/ffunicode.o
 .data          0x0000000000000000        0x0 build/default/debug/_ext/411819097/ffunicode.o
 .bss           0x0000000000000000        0x0 build/default/debug/_ext/411819097/ffunicode.o
 .text          0x0000000000000000        0x0 build/default/debug/_ext/60165520/plib_clk.o
 .data          0x0000000000000000        0x0 build/default/debug/_ext/60165520/plib_clk.o
 .bss           0x0000000000000000        0x0 build/default/debug/_ext/60165520/plib_clk.o
 .text.CLK_UTMIPLLEnable
                0x0000000000000000       0x50 build/default/debug/_ext/60165520/plib_clk.o
 .text.CLK_UTMIPLLDisable
                0x0000000000000000       0x34 build/default/debug/_ext/60165520/plib_clk.o
 .text          0x0000000000000000        0x0 build/default/debug/_ext/60175171/plib_mmu.o
 .data          0x0000000000000000        0x0 build/default/debug/_ext/60175171/plib_mmu.o
 .bss           0x0000000000000000        0x0 build/default/debug/_ext/60175171/plib_mmu.o
 .text.icache_InvalidateAll
                0x0000000000000000       0x34 build/default/debug/_ext/60175171/plib_mmu.o
 .text.icache_Disable
                0x0000000000000000       0x68 build/default/debug/_ext/60175171/plib_mmu.o
 .text.dcache_InvalidateAll
                0x0000000000000000      0x278 build/default/debug/_ext/60175171/plib_mmu.o
 .text.dcache_CleanAll
                0x0000000000000000      0x278 build/default/debug/_ext/60175171/plib_mmu.o
 .text.dcache_CleanInvalidateAll
                0x0000000000000000      0x278 build/default/debug/_ext/60175171/plib_mmu.o
 .text.dcache_InvalidateByAddr
                0x0000000000000000       0x80 build/default/debug/_ext/60175171/plib_mmu.o
 .text.dcache_CleanByAddr
                0x0000000000000000       0x80 build/default/debug/_ext/60175171/plib_mmu.o
 .text.dcache_CleanInvalidateByAddr
                0x0000000000000000       0x80 build/default/debug/_ext/60175171/plib_mmu.o
 .text.dcache_Disable
                0x0000000000000000      0x508 build/default/debug/_ext/60175171/plib_mmu.o
 .text          0x0000000000000000        0x0 build/default/debug/_ext/101884895/sys_time.o
 .data          0x0000000000000000        0x0 build/default/debug/_ext/101884895/sys_time.o
 .bss           0x0000000000000000        0x0 build/default/debug/_ext/101884895/sys_time.o
 .text.SYS_TIME_GetTotalElapsedCount
                0x0000000000000000      0x13c build/default/debug/_ext/101884895/sys_time.o
 .text.SYS_TIME_Deinitialize
                0x0000000000000000       0x84 build/default/debug/_ext/101884895/sys_time.o
 .text.SYS_TIME_Status
                0x0000000000000000       0x54 build/default/debug/_ext/101884895/sys_time.o
 .text.SYS_TIME_FrequencyGet
                0x0000000000000000       0x24 build/default/debug/_ext/101884895/sys_time.o
 .text.SYS_TIME_Counter64Get
                0x0000000000000000       0x90 build/default/debug/_ext/101884895/sys_time.o
 .text.SYS_TIME_CounterGet
                0x0000000000000000       0x30 build/default/debug/_ext/101884895/sys_time.o
 .text.SYS_TIME_CounterSet
                0x0000000000000000       0x4c build/default/debug/_ext/101884895/sys_time.o
 .text.SYS_TIME_CountToUS
                0x0000000000000000       0x78 build/default/debug/_ext/101884895/sys_time.o
 .text.SYS_TIME_CountToMS
                0x0000000000000000       0x98 build/default/debug/_ext/101884895/sys_time.o
 .text.SYS_TIME_USToCount
                0x0000000000000000       0x70 build/default/debug/_ext/101884895/sys_time.o
 .text.SYS_TIME_TimerCreate
                0x0000000000000000       0x68 build/default/debug/_ext/101884895/sys_time.o
 .text.SYS_TIME_TimerReload
                0x0000000000000000      0x158 build/default/debug/_ext/101884895/sys_time.o
 .text.SYS_TIME_TimerStop
                0x0000000000000000       0xc0 build/default/debug/_ext/101884895/sys_time.o
 .text.SYS_TIME_TimerCounterGet
                0x0000000000000000       0x9c build/default/debug/_ext/101884895/sys_time.o
 .text.SYS_TIME_DelayUS
                0x0000000000000000       0xa4 build/default/debug/_ext/101884895/sys_time.o
 .text.SYS_TIME_CallbackRegisterUS
                0x0000000000000000       0x9c build/default/debug/_ext/101884895/sys_time.o
 .text          0x0000000000000000        0x0 build/default/debug/_ext/565198302/diskio.o
 .data          0x0000000000000000        0x0 build/default/debug/_ext/565198302/diskio.o
 .bss           0x0000000000000000        0x0 build/default/debug/_ext/565198302/diskio.o
 .text          0x0000000000000000        0x0 build/default/debug/_ext/1865657120/plib_uart1.o
 .data          0x0000000000000000        0x0 build/default/debug/_ext/1865657120/plib_uart1.o
 .bss           0x0000000000000000        0x0 build/default/debug/_ext/1865657120/plib_uart1.o
 .text.UART1_SerialSetup
                0x0000000000000000       0xe0 build/default/debug/_ext/1865657120/plib_uart1.o
 .text.UART1_ReadByte
                0x0000000000000000       0x34 build/default/debug/_ext/1865657120/plib_uart1.o
 .text.UART1_WriteByte
                0x0000000000000000       0x50 build/default/debug/_ext/1865657120/plib_uart1.o
 .text.UART1_TransmitterIsReady
                0x0000000000000000       0x48 build/default/debug/_ext/1865657120/plib_uart1.o
 .text.UART1_ReceiverIsReady
                0x0000000000000000       0x48 build/default/debug/_ext/1865657120/plib_uart1.o
 .text.UART1_TransmitComplete
                0x0000000000000000       0x48 build/default/debug/_ext/1865657120/plib_uart1.o
 .data          0x0000000000000000        0x0 c:/program files/microchip/xc32/v4.60/bin/bin/../../lib/gcc/pic32c/8.3.1/thumb/v7-a+simd/hard\libgcc.a(_udivsi3.o)
 .bss           0x0000000000000000        0x0 c:/program files/microchip/xc32/v4.60/bin/bin/../../lib/gcc/pic32c/8.3.1/thumb/v7-a+simd/hard\libgcc.a(_udivsi3.o)
 .xc_stack_usage.hdr
                0x0000000000000000        0xe c:/program files/microchip/xc32/v4.60/bin/bin/../../lib/gcc/pic32c/8.3.1/thumb/v7-a+simd/hard\libgcc.a(_udivsi3.o)
 .xc_stack_usage
                0x0000000000000000       0x35 c:/program files/microchip/xc32/v4.60/bin/bin/../../lib/gcc/pic32c/8.3.1/thumb/v7-a+simd/hard\libgcc.a(_udivsi3.o)
 .data          0x0000000000000000        0x0 c:/program files/microchip/xc32/v4.60/bin/bin/../../lib/gcc/pic32c/8.3.1/thumb/v7-a+simd/hard\libgcc.a(_divsi3.o)
 .bss           0x0000000000000000        0x0 c:/program files/microchip/xc32/v4.60/bin/bin/../../lib/gcc/pic32c/8.3.1/thumb/v7-a+simd/hard\libgcc.a(_divsi3.o)
 .xc_stack_usage.hdr
                0x0000000000000000        0xe c:/program files/microchip/xc32/v4.60/bin/bin/../../lib/gcc/pic32c/8.3.1/thumb/v7-a+simd/hard\libgcc.a(_divsi3.o)
 .xc_stack_usage
                0x0000000000000000       0x33 c:/program files/microchip/xc32/v4.60/bin/bin/../../lib/gcc/pic32c/8.3.1/thumb/v7-a+simd/hard\libgcc.a(_divsi3.o)
 .data          0x0000000000000000        0x0 c:/program files/microchip/xc32/v4.60/bin/bin/../../lib/gcc/pic32c/8.3.1/thumb/v7-a+simd/hard\libgcc.a(_dvmd_tls.o)
 .bss           0x0000000000000000        0x0 c:/program files/microchip/xc32/v4.60/bin/bin/../../lib/gcc/pic32c/8.3.1/thumb/v7-a+simd/hard\libgcc.a(_dvmd_tls.o)
 .xc_stack_usage.hdr
                0x0000000000000000        0xe c:/program files/microchip/xc32/v4.60/bin/bin/../../lib/gcc/pic32c/8.3.1/thumb/v7-a+simd/hard\libgcc.a(_dvmd_tls.o)
 .xc_stack_usage
                0x0000000000000000       0x36 c:/program files/microchip/xc32/v4.60/bin/bin/../../lib/gcc/pic32c/8.3.1/thumb/v7-a+simd/hard\libgcc.a(_dvmd_tls.o)
 .data          0x0000000000000000        0x0 c:/program files/microchip/xc32/v4.60/bin/bin/../../lib/gcc/pic32c/8.3.1/thumb/v7-a+simd/hard\libgcc.a(_aeabi_uldivmod.o)
 .bss           0x0000000000000000        0x0 c:/program files/microchip/xc32/v4.60/bin/bin/../../lib/gcc/pic32c/8.3.1/thumb/v7-a+simd/hard\libgcc.a(_aeabi_uldivmod.o)
 .xc_stack_usage.hdr
                0x0000000000000000        0xe c:/program files/microchip/xc32/v4.60/bin/bin/../../lib/gcc/pic32c/8.3.1/thumb/v7-a+simd/hard\libgcc.a(_aeabi_uldivmod.o)
 .xc_stack_usage
                0x0000000000000000       0x1e c:/program files/microchip/xc32/v4.60/bin/bin/../../lib/gcc/pic32c/8.3.1/thumb/v7-a+simd/hard\libgcc.a(_aeabi_uldivmod.o)
 .data          0x0000000000000000        0x0 c:/program files/microchip/xc32/v4.60/bin/bin/../../lib/gcc/pic32c/8.3.1/thumb/v7-a+simd/hard\libgcc.a(_udivmoddi4.o)
 .bss           0x0000000000000000        0x0 c:/program files/microchip/xc32/v4.60/bin/bin/../../lib/gcc/pic32c/8.3.1/thumb/v7-a+simd/hard\libgcc.a(_udivmoddi4.o)
 .xc_stack_usage
                0x0000000000000000       0x1a c:/program files/microchip/xc32/v4.60/bin/bin/../../lib/gcc/pic32c/8.3.1/thumb/v7-a+simd/hard\libgcc.a(_udivmoddi4.o)
 .ARM.extab     0x0000000000000000        0x0 c:/program files/microchip/xc32/v4.60/bin/bin/../../lib/gcc/pic32c/8.3.1/thumb/v7-a+simd/hard\libgcc.a(_udivmoddi4.o)
 .xc_stack_usage.hdr
                0x0000000000000000        0xe c:/program files/microchip/xc32/v4.60/bin/bin/../../lib/gcc/pic32c/8.3.1/thumb/v7-a+simd/hard\libgcc.a(_udivmoddi4.o)
 .text          0x0000000000000000        0x0 c:/program files/microchip/xc32/v4.60/bin/bin/../../lib/gcc/pic32c/8.3.1/../../../../pic32c/lib/thumb/v7-a+simd/hard\libc-size-musl.a(memcmp.o)
 .data          0x0000000000000000        0x0 c:/program files/microchip/xc32/v4.60/bin/bin/../../lib/gcc/pic32c/8.3.1/../../../../pic32c/lib/thumb/v7-a+simd/hard\libc-size-musl.a(memcmp.o)
 .bss           0x0000000000000000        0x0 c:/program files/microchip/xc32/v4.60/bin/bin/../../lib/gcc/pic32c/8.3.1/../../../../pic32c/lib/thumb/v7-a+simd/hard\libc-size-musl.a(memcmp.o)
 .xc_stack_usage
                0x0000000000000000       0x14 c:/program files/microchip/xc32/v4.60/bin/bin/../../lib/gcc/pic32c/8.3.1/../../../../pic32c/lib/thumb/v7-a+simd/hard\libc-size-musl.a(memcmp.o)
 .xc_stack_usage.hdr
                0x0000000000000000        0xe c:/program files/microchip/xc32/v4.60/bin/bin/../../lib/gcc/pic32c/8.3.1/../../../../pic32c/lib/thumb/v7-a+simd/hard\libc-size-musl.a(memcmp.o)
 .text          0x0000000000000000        0x0 c:/program files/microchip/xc32/v4.60/bin/bin/../../lib/gcc/pic32c/8.3.1/../../../../pic32c/lib/thumb/v7-a+simd/hard\libc-size-musl.a(memcpy.o)
 .data          0x0000000000000000        0x0 c:/program files/microchip/xc32/v4.60/bin/bin/../../lib/gcc/pic32c/8.3.1/../../../../pic32c/lib/thumb/v7-a+simd/hard\libc-size-musl.a(memcpy.o)
 .bss           0x0000000000000000        0x0 c:/program files/microchip/xc32/v4.60/bin/bin/../../lib/gcc/pic32c/8.3.1/../../../../pic32c/lib/thumb/v7-a+simd/hard\libc-size-musl.a(memcpy.o)
 .xc_stack_usage
                0x0000000000000000       0x14 c:/program files/microchip/xc32/v4.60/bin/bin/../../lib/gcc/pic32c/8.3.1/../../../../pic32c/lib/thumb/v7-a+simd/hard\libc-size-musl.a(memcpy.o)
 .xc_stack_usage.hdr
                0x0000000000000000        0xe c:/program files/microchip/xc32/v4.60/bin/bin/../../lib/gcc/pic32c/8.3.1/../../../../pic32c/lib/thumb/v7-a+simd/hard\libc-size-musl.a(memcpy.o)
 .text          0x0000000000000000        0x0 c:/program files/microchip/xc32/v4.60/bin/bin/../../lib/gcc/pic32c/8.3.1/../../../../pic32c/lib/thumb/v7-a+simd/hard\libc-size-musl.a(memmove.o)
 .data          0x0000000000000000        0x0 c:/program files/microchip/xc32/v4.60/bin/bin/../../lib/gcc/pic32c/8.3.1/../../../../pic32c/lib/thumb/v7-a+simd/hard\libc-size-musl.a(memmove.o)
 .bss           0x0000000000000000        0x0 c:/program files/microchip/xc32/v4.60/bin/bin/../../lib/gcc/pic32c/8.3.1/../../../../pic32c/lib/thumb/v7-a+simd/hard\libc-size-musl.a(memmove.o)
 .xc_stack_usage
                0x0000000000000000       0x15 c:/program files/microchip/xc32/v4.60/bin/bin/../../lib/gcc/pic32c/8.3.1/../../../../pic32c/lib/thumb/v7-a+simd/hard\libc-size-musl.a(memmove.o)
 .xc_stack_usage.hdr
                0x0000000000000000        0xe c:/program files/microchip/xc32/v4.60/bin/bin/../../lib/gcc/pic32c/8.3.1/../../../../pic32c/lib/thumb/v7-a+simd/hard\libc-size-musl.a(memmove.o)
 .text          0x0000000000000000        0x0 c:/program files/microchip/xc32/v4.60/bin/bin/../../lib/gcc/pic32c/8.3.1/../../../../pic32c/lib/thumb/v7-a+simd/hard\libc-size-musl.a(memset.o)
 .data          0x0000000000000000        0x0 c:/program files/microchip/xc32/v4.60/bin/bin/../../lib/gcc/pic32c/8.3.1/../../../../pic32c/lib/thumb/v7-a+simd/hard\libc-size-musl.a(memset.o)
 .bss           0x0000000000000000        0x0 c:/program files/microchip/xc32/v4.60/bin/bin/../../lib/gcc/pic32c/8.3.1/../../../../pic32c/lib/thumb/v7-a+simd/hard\libc-size-musl.a(memset.o)
 .xc_stack_usage
                0x0000000000000000       0x14 c:/program files/microchip/xc32/v4.60/bin/bin/../../lib/gcc/pic32c/8.3.1/../../../../pic32c/lib/thumb/v7-a+simd/hard\libc-size-musl.a(memset.o)
 .xc_stack_usage.hdr
                0x0000000000000000        0xe c:/program files/microchip/xc32/v4.60/bin/bin/../../lib/gcc/pic32c/8.3.1/../../../../pic32c/lib/thumb/v7-a+simd/hard\libc-size-musl.a(memset.o)
 .text          0x0000000000000000        0x0 c:/program files/microchip/xc32/v4.60/bin/bin/../../lib/gcc/pic32c/8.3.1/../../../../pic32c/lib/thumb/v7-a+simd/hard\libc-size-musl.a(strlen.o)
 .data          0x0000000000000000        0x0 c:/program files/microchip/xc32/v4.60/bin/bin/../../lib/gcc/pic32c/8.3.1/../../../../pic32c/lib/thumb/v7-a+simd/hard\libc-size-musl.a(strlen.o)
 .bss           0x0000000000000000        0x0 c:/program files/microchip/xc32/v4.60/bin/bin/../../lib/gcc/pic32c/8.3.1/../../../../pic32c/lib/thumb/v7-a+simd/hard\libc-size-musl.a(strlen.o)
 .xc_stack_usage
                0x0000000000000000       0x14 c:/program files/microchip/xc32/v4.60/bin/bin/../../lib/gcc/pic32c/8.3.1/../../../../pic32c/lib/thumb/v7-a+simd/hard\libc-size-musl.a(strlen.o)
 .xc_stack_usage.hdr
                0x0000000000000000        0xe c:/program files/microchip/xc32/v4.60/bin/bin/../../lib/gcc/pic32c/8.3.1/../../../../pic32c/lib/thumb/v7-a+simd/hard\libc-size-musl.a(strlen.o)
 .text          0x0000000000000000        0x0 c:/program files/microchip/xc32/v4.60/bin/bin/../../lib/gcc/pic32c/8.3.1/../../../../pic32c/lib/thumb/v7-a+simd/hard\libc-size-musl.a(strchr.o)
 .data          0x0000000000000000        0x0 c:/program files/microchip/xc32/v4.60/bin/bin/../../lib/gcc/pic32c/8.3.1/../../../../pic32c/lib/thumb/v7-a+simd/hard\libc-size-musl.a(strchr.o)
 .bss           0x0000000000000000        0x0 c:/program files/microchip/xc32/v4.60/bin/bin/../../lib/gcc/pic32c/8.3.1/../../../../pic32c/lib/thumb/v7-a+simd/hard\libc-size-musl.a(strchr.o)
 .xc_stack_usage
                0x0000000000000000       0x14 c:/program files/microchip/xc32/v4.60/bin/bin/../../lib/gcc/pic32c/8.3.1/../../../../pic32c/lib/thumb/v7-a+simd/hard\libc-size-musl.a(strchr.o)
 .xc_stack_usage.hdr
                0x0000000000000000        0xe c:/program files/microchip/xc32/v4.60/bin/bin/../../lib/gcc/pic32c/8.3.1/../../../../pic32c/lib/thumb/v7-a+simd/hard\libc-size-musl.a(strchr.o)
 .text          0x0000000000000000        0x0 c:/program files/microchip/xc32/v4.60/bin/bin/../../lib/gcc/pic32c/8.3.1/../../../../pic32c/lib/thumb/v7-a+simd/hard\libc-size-musl.a(strchrnul.o)
 .data          0x0000000000000000        0x0 c:/program files/microchip/xc32/v4.60/bin/bin/../../lib/gcc/pic32c/8.3.1/../../../../pic32c/lib/thumb/v7-a+simd/hard\libc-size-musl.a(strchrnul.o)
 .bss           0x0000000000000000        0x0 c:/program files/microchip/xc32/v4.60/bin/bin/../../lib/gcc/pic32c/8.3.1/../../../../pic32c/lib/thumb/v7-a+simd/hard\libc-size-musl.a(strchrnul.o)
 .xc_stack_usage
                0x0000000000000000       0x19 c:/program files/microchip/xc32/v4.60/bin/bin/../../lib/gcc/pic32c/8.3.1/../../../../pic32c/lib/thumb/v7-a+simd/hard\libc-size-musl.a(strchrnul.o)
 .xc_stack_usage.hdr
                0x0000000000000000        0xe c:/program files/microchip/xc32/v4.60/bin/bin/../../lib/gcc/pic32c/8.3.1/../../../../pic32c/lib/thumb/v7-a+simd/hard\libc-size-musl.a(strchrnul.o)
 .text          0x0000000000000000        0x0 c:/program files/microchip/xc32/v4.60/bin/bin/../../lib/gcc/pic32c/8.3.1/../../../../pic32c/lib/thumb/v7-a+simd/hard\libc-size-musl.a(strcmp.o)
 .data          0x0000000000000000        0x0 c:/program files/microchip/xc32/v4.60/bin/bin/../../lib/gcc/pic32c/8.3.1/../../../../pic32c/lib/thumb/v7-a+simd/hard\libc-size-musl.a(strcmp.o)
 .bss           0x0000000000000000        0x0 c:/program files/microchip/xc32/v4.60/bin/bin/../../lib/gcc/pic32c/8.3.1/../../../../pic32c/lib/thumb/v7-a+simd/hard\libc-size-musl.a(strcmp.o)
 .xc_stack_usage
                0x0000000000000000       0x14 c:/program files/microchip/xc32/v4.60/bin/bin/../../lib/gcc/pic32c/8.3.1/../../../../pic32c/lib/thumb/v7-a+simd/hard\libc-size-musl.a(strcmp.o)
 .xc_stack_usage.hdr
                0x0000000000000000        0xe c:/program files/microchip/xc32/v4.60/bin/bin/../../lib/gcc/pic32c/8.3.1/../../../../pic32c/lib/thumb/v7-a+simd/hard\libc-size-musl.a(strcmp.o)
 .text          0x0000000000000000        0x0 c:/program files/microchip/xc32/v4.60/bin/bin/../../lib/gcc/pic32c/8.3.1/../../../../pic32c/lib/thumb/v7-a+simd/hard\libc-size-musl.a(strcpy.o)
 .data          0x0000000000000000        0x0 c:/program files/microchip/xc32/v4.60/bin/bin/../../lib/gcc/pic32c/8.3.1/../../../../pic32c/lib/thumb/v7-a+simd/hard\libc-size-musl.a(strcpy.o)
 .bss           0x0000000000000000        0x0 c:/program files/microchip/xc32/v4.60/bin/bin/../../lib/gcc/pic32c/8.3.1/../../../../pic32c/lib/thumb/v7-a+simd/hard\libc-size-musl.a(strcpy.o)
 .xc_stack_usage
                0x0000000000000000       0x14 c:/program files/microchip/xc32/v4.60/bin/bin/../../lib/gcc/pic32c/8.3.1/../../../../pic32c/lib/thumb/v7-a+simd/hard\libc-size-musl.a(strcpy.o)
 .text.strcpy   0x0000000000000000        0xc c:/program files/microchip/xc32/v4.60/bin/bin/../../lib/gcc/pic32c/8.3.1/../../../../pic32c/lib/thumb/v7-a+simd/hard\libc-size-musl.a(strcpy.o)
 .xc_stack_usage.hdr
                0x0000000000000000        0xe c:/program files/microchip/xc32/v4.60/bin/bin/../../lib/gcc/pic32c/8.3.1/../../../../pic32c/lib/thumb/v7-a+simd/hard\libc-size-musl.a(strcpy.o)
 .debug_info    0x0000000000000000       0xbd c:/program files/microchip/xc32/v4.60/bin/bin/../../lib/gcc/pic32c/8.3.1/../../../../pic32c/lib/thumb/v7-a+simd/hard\libc-size-musl.a(strcpy.o)
 .debug_abbrev  0x0000000000000000       0xa2 c:/program files/microchip/xc32/v4.60/bin/bin/../../lib/gcc/pic32c/8.3.1/../../../../pic32c/lib/thumb/v7-a+simd/hard\libc-size-musl.a(strcpy.o)
 .debug_loc     0x0000000000000000       0x67 c:/program files/microchip/xc32/v4.60/bin/bin/../../lib/gcc/pic32c/8.3.1/../../../../pic32c/lib/thumb/v7-a+simd/hard\libc-size-musl.a(strcpy.o)
 .debug_aranges
                0x0000000000000000       0x20 c:/program files/microchip/xc32/v4.60/bin/bin/../../lib/gcc/pic32c/8.3.1/../../../../pic32c/lib/thumb/v7-a+simd/hard\libc-size-musl.a(strcpy.o)
 .debug_ranges  0x0000000000000000       0x10 c:/program files/microchip/xc32/v4.60/bin/bin/../../lib/gcc/pic32c/8.3.1/../../../../pic32c/lib/thumb/v7-a+simd/hard\libc-size-musl.a(strcpy.o)
 .debug_line    0x0000000000000000       0xad c:/program files/microchip/xc32/v4.60/bin/bin/../../lib/gcc/pic32c/8.3.1/../../../../pic32c/lib/thumb/v7-a+simd/hard\libc-size-musl.a(strcpy.o)
 .debug_str     0x0000000000000000      0x21a c:/program files/microchip/xc32/v4.60/bin/bin/../../lib/gcc/pic32c/8.3.1/../../../../pic32c/lib/thumb/v7-a+simd/hard\libc-size-musl.a(strcpy.o)
 .comment       0x0000000000000000       0x2c c:/program files/microchip/xc32/v4.60/bin/bin/../../lib/gcc/pic32c/8.3.1/../../../../pic32c/lib/thumb/v7-a+simd/hard\libc-size-musl.a(strcpy.o)
 .note.GNU-stack
                0x0000000000000000        0x0 c:/program files/microchip/xc32/v4.60/bin/bin/../../lib/gcc/pic32c/8.3.1/../../../../pic32c/lib/thumb/v7-a+simd/hard\libc-size-musl.a(strcpy.o)
 .debug_frame   0x0000000000000000       0x28 c:/program files/microchip/xc32/v4.60/bin/bin/../../lib/gcc/pic32c/8.3.1/../../../../pic32c/lib/thumb/v7-a+simd/hard\libc-size-musl.a(strcpy.o)
 .ARM.attributes
                0x0000000000000000       0x37 c:/program files/microchip/xc32/v4.60/bin/bin/../../lib/gcc/pic32c/8.3.1/../../../../pic32c/lib/thumb/v7-a+simd/hard\libc-size-musl.a(strcpy.o)
 .text          0x0000000000000000        0x0 c:/program files/microchip/xc32/v4.60/bin/bin/../../lib/gcc/pic32c/8.3.1/../../../../pic32c/lib/thumb/v7-a+simd/hard\libc-size-musl.a(strncmp.o)
 .data          0x0000000000000000        0x0 c:/program files/microchip/xc32/v4.60/bin/bin/../../lib/gcc/pic32c/8.3.1/../../../../pic32c/lib/thumb/v7-a+simd/hard\libc-size-musl.a(strncmp.o)
 .bss           0x0000000000000000        0x0 c:/program files/microchip/xc32/v4.60/bin/bin/../../lib/gcc/pic32c/8.3.1/../../../../pic32c/lib/thumb/v7-a+simd/hard\libc-size-musl.a(strncmp.o)
 .xc_stack_usage
                0x0000000000000000       0x15 c:/program files/microchip/xc32/v4.60/bin/bin/../../lib/gcc/pic32c/8.3.1/../../../../pic32c/lib/thumb/v7-a+simd/hard\libc-size-musl.a(strncmp.o)
 .xc_stack_usage.hdr
                0x0000000000000000        0xe c:/program files/microchip/xc32/v4.60/bin/bin/../../lib/gcc/pic32c/8.3.1/../../../../pic32c/lib/thumb/v7-a+simd/hard\libc-size-musl.a(strncmp.o)
 .text          0x0000000000000000        0x0 c:/program files/microchip/xc32/v4.60/bin/bin/../../lib/gcc/pic32c/8.3.1/../../../../pic32c/lib/thumb/v7-a+simd/hard\libc-size-musl.a(stpcpy.o)
 .data          0x0000000000000000        0x0 c:/program files/microchip/xc32/v4.60/bin/bin/../../lib/gcc/pic32c/8.3.1/../../../../pic32c/lib/thumb/v7-a+simd/hard\libc-size-musl.a(stpcpy.o)
 .bss           0x0000000000000000        0x0 c:/program files/microchip/xc32/v4.60/bin/bin/../../lib/gcc/pic32c/8.3.1/../../../../pic32c/lib/thumb/v7-a+simd/hard\libc-size-musl.a(stpcpy.o)
 .xc_stack_usage
                0x0000000000000000       0x14 c:/program files/microchip/xc32/v4.60/bin/bin/../../lib/gcc/pic32c/8.3.1/../../../../pic32c/lib/thumb/v7-a+simd/hard\libc-size-musl.a(stpcpy.o)
 .text.stpcpy   0x0000000000000000       0x14 c:/program files/microchip/xc32/v4.60/bin/bin/../../lib/gcc/pic32c/8.3.1/../../../../pic32c/lib/thumb/v7-a+simd/hard\libc-size-musl.a(stpcpy.o)
 .xc_stack_usage.hdr
                0x0000000000000000        0xe c:/program files/microchip/xc32/v4.60/bin/bin/../../lib/gcc/pic32c/8.3.1/../../../../pic32c/lib/thumb/v7-a+simd/hard\libc-size-musl.a(stpcpy.o)
 .debug_info    0x0000000000000000       0xac c:/program files/microchip/xc32/v4.60/bin/bin/../../lib/gcc/pic32c/8.3.1/../../../../pic32c/lib/thumb/v7-a+simd/hard\libc-size-musl.a(stpcpy.o)
 .debug_abbrev  0x0000000000000000       0x6e c:/program files/microchip/xc32/v4.60/bin/bin/../../lib/gcc/pic32c/8.3.1/../../../../pic32c/lib/thumb/v7-a+simd/hard\libc-size-musl.a(stpcpy.o)
 .debug_loc     0x0000000000000000       0x60 c:/program files/microchip/xc32/v4.60/bin/bin/../../lib/gcc/pic32c/8.3.1/../../../../pic32c/lib/thumb/v7-a+simd/hard\libc-size-musl.a(stpcpy.o)
 .debug_aranges
                0x0000000000000000       0x20 c:/program files/microchip/xc32/v4.60/bin/bin/../../lib/gcc/pic32c/8.3.1/../../../../pic32c/lib/thumb/v7-a+simd/hard\libc-size-musl.a(stpcpy.o)
 .debug_ranges  0x0000000000000000       0x10 c:/program files/microchip/xc32/v4.60/bin/bin/../../lib/gcc/pic32c/8.3.1/../../../../pic32c/lib/thumb/v7-a+simd/hard\libc-size-musl.a(stpcpy.o)
 .debug_line    0x0000000000000000       0xc1 c:/program files/microchip/xc32/v4.60/bin/bin/../../lib/gcc/pic32c/8.3.1/../../../../pic32c/lib/thumb/v7-a+simd/hard\libc-size-musl.a(stpcpy.o)
 .debug_str     0x0000000000000000      0x22e c:/program files/microchip/xc32/v4.60/bin/bin/../../lib/gcc/pic32c/8.3.1/../../../../pic32c/lib/thumb/v7-a+simd/hard\libc-size-musl.a(stpcpy.o)
 .comment       0x0000000000000000       0x2c c:/program files/microchip/xc32/v4.60/bin/bin/../../lib/gcc/pic32c/8.3.1/../../../../pic32c/lib/thumb/v7-a+simd/hard\libc-size-musl.a(stpcpy.o)
 .note.GNU-stack
                0x0000000000000000        0x0 c:/program files/microchip/xc32/v4.60/bin/bin/../../lib/gcc/pic32c/8.3.1/../../../../pic32c/lib/thumb/v7-a+simd/hard\libc-size-musl.a(stpcpy.o)
 .debug_frame   0x0000000000000000       0x20 c:/program files/microchip/xc32/v4.60/bin/bin/../../lib/gcc/pic32c/8.3.1/../../../../pic32c/lib/thumb/v7-a+simd/hard\libc-size-musl.a(stpcpy.o)
 .ARM.attributes
                0x0000000000000000       0x37 c:/program files/microchip/xc32/v4.60/bin/bin/../../lib/gcc/pic32c/8.3.1/../../../../pic32c/lib/thumb/v7-a+simd/hard\libc-size-musl.a(stpcpy.o)
 .text          0x0000000000000000        0x0 c:/program files/microchip/xc32/v4.60/bin/bin/../../lib/gcc/pic32c/8.3.1/../../../../pic32c/lib/thumb/v7-a+simd/hard\liblmalloc-musl.a(lite_free.o)
 .data          0x0000000000000000        0x0 c:/program files/microchip/xc32/v4.60/bin/bin/../../lib/gcc/pic32c/8.3.1/../../../../pic32c/lib/thumb/v7-a+simd/hard\liblmalloc-musl.a(lite_free.o)
 .xc_stack_usage
                0x0000000000000000       0x59 c:/program files/microchip/xc32/v4.60/bin/bin/../../lib/gcc/pic32c/8.3.1/../../../../pic32c/lib/thumb/v7-a+simd/hard\liblmalloc-musl.a(lite_free.o)
 .xc_stack_usage.hdr
                0x0000000000000000        0xe c:/program files/microchip/xc32/v4.60/bin/bin/../../lib/gcc/pic32c/8.3.1/../../../../pic32c/lib/thumb/v7-a+simd/hard\liblmalloc-musl.a(lite_free.o)
 .text          0x0000000000000000        0x0 c:/program files/microchip/xc32/v4.60/bin/bin/../../lib/gcc/pic32c/8.3.1/../../../../pic32c/lib/thumb/v7-a+simd/hard\liblmalloc-musl.a(lite_malloc.o)
 .bss           0x0000000000000000        0x0 c:/program files/microchip/xc32/v4.60/bin/bin/../../lib/gcc/pic32c/8.3.1/../../../../pic32c/lib/thumb/v7-a+simd/hard\liblmalloc-musl.a(lite_malloc.o)
 .xc_stack_usage
                0x0000000000000000       0x1d c:/program files/microchip/xc32/v4.60/bin/bin/../../lib/gcc/pic32c/8.3.1/../../../../pic32c/lib/thumb/v7-a+simd/hard\liblmalloc-musl.a(lite_malloc.o)
 .xc_stack_usage.hdr
                0x0000000000000000        0xe c:/program files/microchip/xc32/v4.60/bin/bin/../../lib/gcc/pic32c/8.3.1/../../../../pic32c/lib/thumb/v7-a+simd/hard\liblmalloc-musl.a(lite_malloc.o)
 .text          0x0000000000000000        0x0 c:/program files/microchip/xc32/v4.60/bin/bin/../../lib/gcc/pic32c/8.3.1/../../../../pic32c/lib/thumb/v7-a+simd/hard\libg-musl.a(__libc_start_main.o)
 .data          0x0000000000000000        0x0 c:/program files/microchip/xc32/v4.60/bin/bin/../../lib/gcc/pic32c/8.3.1/../../../../pic32c/lib/thumb/v7-a+simd/hard\libg-musl.a(__libc_start_main.o)
 .bss           0x0000000000000000        0x0 c:/program files/microchip/xc32/v4.60/bin/bin/../../lib/gcc/pic32c/8.3.1/../../../../pic32c/lib/thumb/v7-a+simd/hard\libg-musl.a(__libc_start_main.o)
 .xc_stack_usage
                0x0000000000000000       0x34 c:/program files/microchip/xc32/v4.60/bin/bin/../../lib/gcc/pic32c/8.3.1/../../../../pic32c/lib/thumb/v7-a+simd/hard\libg-musl.a(__libc_start_main.o)
 .xc_stack_usage.hdr
                0x0000000000000000        0xe c:/program files/microchip/xc32/v4.60/bin/bin/../../lib/gcc/pic32c/8.3.1/../../../../pic32c/lib/thumb/v7-a+simd/hard\libg-musl.a(__libc_start_main.o)
 .text          0x0000000000000000        0x0 c:/program files/microchip/xc32/v4.60/bin/bin/../../lib/gcc/pic32c/8.3.1/../../../../pic32c/lib/thumb/v7-a+simd/hard\libg-musl.a(__errno_location.o)
 .data          0x0000000000000000        0x0 c:/program files/microchip/xc32/v4.60/bin/bin/../../lib/gcc/pic32c/8.3.1/../../../../pic32c/lib/thumb/v7-a+simd/hard\libg-musl.a(__errno_location.o)
 .xc_stack_usage.hdr
                0x0000000000000000        0xe c:/program files/microchip/xc32/v4.60/bin/bin/../../lib/gcc/pic32c/8.3.1/../../../../pic32c/lib/thumb/v7-a+simd/hard\libg-musl.a(__errno_location.o)
 .text          0x0000000000000000        0x0 c:/program files/microchip/xc32/v4.60/bin/bin/../../lib/gcc/pic32c/8.3.1/../../../../pic32c/lib/thumb/v7-a+simd/hard\libg-musl.a(libc.o)
 .data          0x0000000000000000        0x0 c:/program files/microchip/xc32/v4.60/bin/bin/../../lib/gcc/pic32c/8.3.1/../../../../pic32c/lib/thumb/v7-a+simd/hard\libg-musl.a(libc.o)
 .xc_stack_usage.hdr
                0x0000000000000000        0xe c:/program files/microchip/xc32/v4.60/bin/bin/../../lib/gcc/pic32c/8.3.1/../../../../pic32c/lib/thumb/v7-a+simd/hard\libg-musl.a(libc.o)
 .text          0x0000000000000000        0x0 c:/program files/microchip/xc32/v4.60/bin/bin/../../lib/gcc/pic32c/8.3.1/../../../../pic32c/lib/thumb/v7-a+simd/hard\libg-musl.a(expand_heap.o)
 .data          0x0000000000000000        0x0 c:/program files/microchip/xc32/v4.60/bin/bin/../../lib/gcc/pic32c/8.3.1/../../../../pic32c/lib/thumb/v7-a+simd/hard\libg-musl.a(expand_heap.o)
 .bss           0x0000000000000000        0x0 c:/program files/microchip/xc32/v4.60/bin/bin/../../lib/gcc/pic32c/8.3.1/../../../../pic32c/lib/thumb/v7-a+simd/hard\libg-musl.a(expand_heap.o)
 .xc_stack_usage
                0x0000000000000000       0x1b c:/program files/microchip/xc32/v4.60/bin/bin/../../lib/gcc/pic32c/8.3.1/../../../../pic32c/lib/thumb/v7-a+simd/hard\libg-musl.a(expand_heap.o)
 .xc_stack_usage.hdr
                0x0000000000000000        0xe c:/program files/microchip/xc32/v4.60/bin/bin/../../lib/gcc/pic32c/8.3.1/../../../../pic32c/lib/thumb/v7-a+simd/hard\libg-musl.a(expand_heap.o)
 .text          0x0000000000000000        0x0 c:/program files/microchip/xc32/v4.60/bin/bin/../../lib/gcc/pic32c/8.3.1/../../../../pic32c/lib/thumb/v7-a+simd/hard\libg-musl.a(__sio_printf_dn.o)
 .data          0x0000000000000000        0x0 c:/program files/microchip/xc32/v4.60/bin/bin/../../lib/gcc/pic32c/8.3.1/../../../../pic32c/lib/thumb/v7-a+simd/hard\libg-musl.a(__sio_printf_dn.o)
 .bss           0x0000000000000000        0x0 c:/program files/microchip/xc32/v4.60/bin/bin/../../lib/gcc/pic32c/8.3.1/../../../../pic32c/lib/thumb/v7-a+simd/hard\libg-musl.a(__sio_printf_dn.o)
 .xc_stack_usage
                0x0000000000000000       0x38 c:/program files/microchip/xc32/v4.60/bin/bin/../../lib/gcc/pic32c/8.3.1/../../../../pic32c/lib/thumb/v7-a+simd/hard\libg-musl.a(__sio_printf_dn.o)
 .text.__sio_printf_dn
                0x0000000000000000       0x12 c:/program files/microchip/xc32/v4.60/bin/bin/../../lib/gcc/pic32c/8.3.1/../../../../pic32c/lib/thumb/v7-a+simd/hard\libg-musl.a(__sio_printf_dn.o)
 .xc_stack_usage.hdr
                0x0000000000000000        0xe c:/program files/microchip/xc32/v4.60/bin/bin/../../lib/gcc/pic32c/8.3.1/../../../../pic32c/lib/thumb/v7-a+simd/hard\libg-musl.a(__sio_printf_dn.o)
 .text          0x0000000000000000        0x0 c:/program files/microchip/xc32/v4.60/bin/bin/../../lib/gcc/pic32c/8.3.1/../../../../pic32c/lib/thumb/v7-a+simd/hard\libg-musl.a(__fmt_d.o)
 .data          0x0000000000000000        0x0 c:/program files/microchip/xc32/v4.60/bin/bin/../../lib/gcc/pic32c/8.3.1/../../../../pic32c/lib/thumb/v7-a+simd/hard\libg-musl.a(__fmt_d.o)
 .bss           0x0000000000000000        0x0 c:/program files/microchip/xc32/v4.60/bin/bin/../../lib/gcc/pic32c/8.3.1/../../../../pic32c/lib/thumb/v7-a+simd/hard\libg-musl.a(__fmt_d.o)
 .xc_stack_usage
                0x0000000000000000       0x15 c:/program files/microchip/xc32/v4.60/bin/bin/../../lib/gcc/pic32c/8.3.1/../../../../pic32c/lib/thumb/v7-a+simd/hard\libg-musl.a(__fmt_d.o)
 .xc_stack_usage.hdr
                0x0000000000000000        0xe c:/program files/microchip/xc32/v4.60/bin/bin/../../lib/gcc/pic32c/8.3.1/../../../../pic32c/lib/thumb/v7-a+simd/hard\libg-musl.a(__fmt_d.o)
 .text          0x0000000000000000        0x0 c:/program files/microchip/xc32/v4.60/bin/bin/../../lib/gcc/pic32c/8.3.1/../../../../pic32c/lib/thumb/v7-a+simd/hard\libg-musl.a(__pop_int.o)
 .data          0x0000000000000000        0x0 c:/program files/microchip/xc32/v4.60/bin/bin/../../lib/gcc/pic32c/8.3.1/../../../../pic32c/lib/thumb/v7-a+simd/hard\libg-musl.a(__pop_int.o)
 .bss           0x0000000000000000        0x0 c:/program files/microchip/xc32/v4.60/bin/bin/../../lib/gcc/pic32c/8.3.1/../../../../pic32c/lib/thumb/v7-a+simd/hard\libg-musl.a(__pop_int.o)
 .xc_stack_usage
                0x0000000000000000       0x17 c:/program files/microchip/xc32/v4.60/bin/bin/../../lib/gcc/pic32c/8.3.1/../../../../pic32c/lib/thumb/v7-a+simd/hard\libg-musl.a(__pop_int.o)
 .xc_stack_usage.hdr
                0x0000000000000000        0xe c:/program files/microchip/xc32/v4.60/bin/bin/../../lib/gcc/pic32c/8.3.1/../../../../pic32c/lib/thumb/v7-a+simd/hard\libg-musl.a(__pop_int.o)
 .text          0x0000000000000000        0x0 c:/program files/microchip/xc32/v4.60/bin/bin/../../lib/gcc/pic32c/8.3.1/../../../../pic32c/lib/thumb/v7-a+simd/hard\libg-musl.a(__pop_ptr.o)
 .data          0x0000000000000000        0x0 c:/program files/microchip/xc32/v4.60/bin/bin/../../lib/gcc/pic32c/8.3.1/../../../../pic32c/lib/thumb/v7-a+simd/hard\libg-musl.a(__pop_ptr.o)
 .bss           0x0000000000000000        0x0 c:/program files/microchip/xc32/v4.60/bin/bin/../../lib/gcc/pic32c/8.3.1/../../../../pic32c/lib/thumb/v7-a+simd/hard\libg-musl.a(__pop_ptr.o)
 .xc_stack_usage
                0x0000000000000000       0x17 c:/program files/microchip/xc32/v4.60/bin/bin/../../lib/gcc/pic32c/8.3.1/../../../../pic32c/lib/thumb/v7-a+simd/hard\libg-musl.a(__pop_ptr.o)
 .xc_stack_usage.hdr
                0x0000000000000000        0xe c:/program files/microchip/xc32/v4.60/bin/bin/../../lib/gcc/pic32c/8.3.1/../../../../pic32c/lib/thumb/v7-a+simd/hard\libg-musl.a(__pop_ptr.o)
 .text          0x0000000000000000        0x0 c:/program files/microchip/xc32/v4.60/bin/bin/../../lib/gcc/pic32c/8.3.1/../../../../pic32c/lib/thumb/v7-a+simd/hard\libg-musl.a(__printf_core.o)
 .data          0x0000000000000000        0x0 c:/program files/microchip/xc32/v4.60/bin/bin/../../lib/gcc/pic32c/8.3.1/../../../../pic32c/lib/thumb/v7-a+simd/hard\libg-musl.a(__printf_core.o)
 .bss           0x0000000000000000        0x0 c:/program files/microchip/xc32/v4.60/bin/bin/../../lib/gcc/pic32c/8.3.1/../../../../pic32c/lib/thumb/v7-a+simd/hard\libg-musl.a(__printf_core.o)
 .xc_stack_usage
                0x0000000000000000       0xaf c:/program files/microchip/xc32/v4.60/bin/bin/../../lib/gcc/pic32c/8.3.1/../../../../pic32c/lib/thumb/v7-a+simd/hard\libg-musl.a(__printf_core.o)
 .text.__string_out
                0x0000000000000000       0x28 c:/program files/microchip/xc32/v4.60/bin/bin/../../lib/gcc/pic32c/8.3.1/../../../../pic32c/lib/thumb/v7-a+simd/hard\libg-musl.a(__printf_core.o)
 .xc_stack_usage.hdr
                0x0000000000000000        0xe c:/program files/microchip/xc32/v4.60/bin/bin/../../lib/gcc/pic32c/8.3.1/../../../../pic32c/lib/thumb/v7-a+simd/hard\libg-musl.a(__printf_core.o)
 .text          0x0000000000000000        0x0 c:/program files/microchip/xc32/v4.60/bin/bin/../../lib/gcc/pic32c/8.3.1/../../../../pic32c/lib/thumb/v7-a+simd/hard\libg-musl.a(stdin.o)
 .xc_stack_usage
                0x0000000000000000       0x33 c:/program files/microchip/xc32/v4.60/bin/bin/../../lib/gcc/pic32c/8.3.1/../../../../pic32c/lib/thumb/v7-a+simd/hard\libg-musl.a(stdin.o)
 .xc_stack_usage.hdr
                0x0000000000000000        0xe c:/program files/microchip/xc32/v4.60/bin/bin/../../lib/gcc/pic32c/8.3.1/../../../../pic32c/lib/thumb/v7-a+simd/hard\libg-musl.a(stdin.o)
 .text          0x0000000000000000        0x0 c:/program files/microchip/xc32/v4.60/bin/bin/../../lib/gcc/pic32c/8.3.1/../../../../pic32c/lib/thumb/v7-a+simd/hard\libg-musl.a(stdout.o)
 .xc_stack_usage
                0x0000000000000000       0x51 c:/program files/microchip/xc32/v4.60/bin/bin/../../lib/gcc/pic32c/8.3.1/../../../../pic32c/lib/thumb/v7-a+simd/hard\libg-musl.a(stdout.o)
 .text.__dummy  0x0000000000000000        0x8 c:/program files/microchip/xc32/v4.60/bin/bin/../../lib/gcc/pic32c/8.3.1/../../../../pic32c/lib/thumb/v7-a+simd/hard\libg-musl.a(stdout.o)
 .xc_stack_usage.hdr
                0x0000000000000000        0xe c:/program files/microchip/xc32/v4.60/bin/bin/../../lib/gcc/pic32c/8.3.1/../../../../pic32c/lib/thumb/v7-a+simd/hard\libg-musl.a(stdout.o)
 .text          0x0000000000000000        0x0 c:/program files/microchip/xc32/v4.60/bin/bin/../../lib/gcc/pic32c/8.3.1/../../../../pic32c/lib/thumb/v7-a+simd/hard\libg-musl.a(puts.o)
 .data          0x0000000000000000        0x0 c:/program files/microchip/xc32/v4.60/bin/bin/../../lib/gcc/pic32c/8.3.1/../../../../pic32c/lib/thumb/v7-a+simd/hard\libg-musl.a(puts.o)
 .bss           0x0000000000000000        0x0 c:/program files/microchip/xc32/v4.60/bin/bin/../../lib/gcc/pic32c/8.3.1/../../../../pic32c/lib/thumb/v7-a+simd/hard\libg-musl.a(puts.o)
 .xc_stack_usage
                0x0000000000000000       0x12 c:/program files/microchip/xc32/v4.60/bin/bin/../../lib/gcc/pic32c/8.3.1/../../../../pic32c/lib/thumb/v7-a+simd/hard\libg-musl.a(puts.o)
 .xc_stack_usage.hdr
                0x0000000000000000        0xe c:/program files/microchip/xc32/v4.60/bin/bin/../../lib/gcc/pic32c/8.3.1/../../../../pic32c/lib/thumb/v7-a+simd/hard\libg-musl.a(puts.o)
 .text          0x0000000000000000        0x0 c:/program files/microchip/xc32/v4.60/bin/bin/../../lib/gcc/pic32c/8.3.1/../../../../pic32c/lib/thumb/v7-a+simd/hard\libg-musl.a(setbuf.o)
 .data          0x0000000000000000        0x0 c:/program files/microchip/xc32/v4.60/bin/bin/../../lib/gcc/pic32c/8.3.1/../../../../pic32c/lib/thumb/v7-a+simd/hard\libg-musl.a(setbuf.o)
 .bss           0x0000000000000000        0x0 c:/program files/microchip/xc32/v4.60/bin/bin/../../lib/gcc/pic32c/8.3.1/../../../../pic32c/lib/thumb/v7-a+simd/hard\libg-musl.a(setbuf.o)
 .xc_stack_usage
                0x0000000000000000       0x14 c:/program files/microchip/xc32/v4.60/bin/bin/../../lib/gcc/pic32c/8.3.1/../../../../pic32c/lib/thumb/v7-a+simd/hard\libg-musl.a(setbuf.o)
 .xc_stack_usage.hdr
                0x0000000000000000        0xe c:/program files/microchip/xc32/v4.60/bin/bin/../../lib/gcc/pic32c/8.3.1/../../../../pic32c/lib/thumb/v7-a+simd/hard\libg-musl.a(setbuf.o)
 .text          0x0000000000000000        0x0 c:/program files/microchip/xc32/v4.60/bin/bin/../../lib/gcc/pic32c/8.3.1/../../../../pic32c/lib/thumb/v7-a+simd/hard\libg-musl.a(atoi.o)
 .data          0x0000000000000000        0x0 c:/program files/microchip/xc32/v4.60/bin/bin/../../lib/gcc/pic32c/8.3.1/../../../../pic32c/lib/thumb/v7-a+simd/hard\libg-musl.a(atoi.o)
 .bss           0x0000000000000000        0x0 c:/program files/microchip/xc32/v4.60/bin/bin/../../lib/gcc/pic32c/8.3.1/../../../../pic32c/lib/thumb/v7-a+simd/hard\libg-musl.a(atoi.o)
 .xc_stack_usage
                0x0000000000000000       0x12 c:/program files/microchip/xc32/v4.60/bin/bin/../../lib/gcc/pic32c/8.3.1/../../../../pic32c/lib/thumb/v7-a+simd/hard\libg-musl.a(atoi.o)
 .xc_stack_usage.hdr
                0x0000000000000000        0xe c:/program files/microchip/xc32/v4.60/bin/bin/../../lib/gcc/pic32c/8.3.1/../../../../pic32c/lib/thumb/v7-a+simd/hard\libg-musl.a(atoi.o)
 .text          0x0000000000000000        0x0 c:/program files/microchip/xc32/v4.60/bin/bin/../../lib/gcc/pic32c/8.3.1/../../../../pic32c/lib/thumb/v7-a+simd/hard\libg-musl.a(tolower.o)
 .data          0x0000000000000000        0x0 c:/program files/microchip/xc32/v4.60/bin/bin/../../lib/gcc/pic32c/8.3.1/../../../../pic32c/lib/thumb/v7-a+simd/hard\libg-musl.a(tolower.o)
 .bss           0x0000000000000000        0x0 c:/program files/microchip/xc32/v4.60/bin/bin/../../lib/gcc/pic32c/8.3.1/../../../../pic32c/lib/thumb/v7-a+simd/hard\libg-musl.a(tolower.o)
 .xc_stack_usage
                0x0000000000000000       0x2e c:/program files/microchip/xc32/v4.60/bin/bin/../../lib/gcc/pic32c/8.3.1/../../../../pic32c/lib/thumb/v7-a+simd/hard\libg-musl.a(tolower.o)
 .text.__tolower_l
                0x0000000000000000        0x4 c:/program files/microchip/xc32/v4.60/bin/bin/../../lib/gcc/pic32c/8.3.1/../../../../pic32c/lib/thumb/v7-a+simd/hard\libg-musl.a(tolower.o)
 .xc_stack_usage.hdr
                0x0000000000000000        0xe c:/program files/microchip/xc32/v4.60/bin/bin/../../lib/gcc/pic32c/8.3.1/../../../../pic32c/lib/thumb/v7-a+simd/hard\libg-musl.a(tolower.o)
 .text          0x0000000000000000        0x0 c:/program files/microchip/xc32/v4.60/bin/bin/../../lib/gcc/pic32c/8.3.1/../../../../pic32c/lib/thumb/v7-a+simd/hard\libg-musl.a(__environ.o)
 .data          0x0000000000000000        0x0 c:/program files/microchip/xc32/v4.60/bin/bin/../../lib/gcc/pic32c/8.3.1/../../../../pic32c/lib/thumb/v7-a+simd/hard\libg-musl.a(__environ.o)
 .xc_stack_usage.hdr
                0x0000000000000000        0xe c:/program files/microchip/xc32/v4.60/bin/bin/../../lib/gcc/pic32c/8.3.1/../../../../pic32c/lib/thumb/v7-a+simd/hard\libg-musl.a(__environ.o)
 .text          0x0000000000000000        0x0 c:/program files/microchip/xc32/v4.60/bin/bin/../../lib/gcc/pic32c/8.3.1/../../../../pic32c/lib/thumb/v7-a+simd/hard\libg-musl.a(__int_vfprintf.o)
 .data          0x0000000000000000        0x0 c:/program files/microchip/xc32/v4.60/bin/bin/../../lib/gcc/pic32c/8.3.1/../../../../pic32c/lib/thumb/v7-a+simd/hard\libg-musl.a(__int_vfprintf.o)
 .bss           0x0000000000000000        0x0 c:/program files/microchip/xc32/v4.60/bin/bin/../../lib/gcc/pic32c/8.3.1/../../../../pic32c/lib/thumb/v7-a+simd/hard\libg-musl.a(__int_vfprintf.o)
 .xc_stack_usage
                0x0000000000000000       0x18 c:/program files/microchip/xc32/v4.60/bin/bin/../../lib/gcc/pic32c/8.3.1/../../../../pic32c/lib/thumb/v7-a+simd/hard\libg-musl.a(__int_vfprintf.o)
 .xc_stack_usage.hdr
                0x0000000000000000        0xe c:/program files/microchip/xc32/v4.60/bin/bin/../../lib/gcc/pic32c/8.3.1/../../../../pic32c/lib/thumb/v7-a+simd/hard\libg-musl.a(__int_vfprintf.o)
 .text          0x0000000000000000        0x0 c:/program files/microchip/xc32/v4.60/bin/bin/../../lib/gcc/pic32c/8.3.1/../../../../pic32c/lib/thumb/v7-a+simd/hard\libg-musl.a(fputs.o)
 .data          0x0000000000000000        0x0 c:/program files/microchip/xc32/v4.60/bin/bin/../../lib/gcc/pic32c/8.3.1/../../../../pic32c/lib/thumb/v7-a+simd/hard\libg-musl.a(fputs.o)
 .bss           0x0000000000000000        0x0 c:/program files/microchip/xc32/v4.60/bin/bin/../../lib/gcc/pic32c/8.3.1/../../../../pic32c/lib/thumb/v7-a+simd/hard\libg-musl.a(fputs.o)
 .xc_stack_usage
                0x0000000000000000       0x13 c:/program files/microchip/xc32/v4.60/bin/bin/../../lib/gcc/pic32c/8.3.1/../../../../pic32c/lib/thumb/v7-a+simd/hard\libg-musl.a(fputs.o)
 .xc_stack_usage.hdr
                0x0000000000000000        0xe c:/program files/microchip/xc32/v4.60/bin/bin/../../lib/gcc/pic32c/8.3.1/../../../../pic32c/lib/thumb/v7-a+simd/hard\libg-musl.a(fputs.o)
 .text          0x0000000000000000        0x0 c:/program files/microchip/xc32/v4.60/bin/bin/../../lib/gcc/pic32c/8.3.1/../../../../pic32c/lib/thumb/v7-a+simd/hard\libg-musl.a(__cvt_u.o)
 .data          0x0000000000000000        0x0 c:/program files/microchip/xc32/v4.60/bin/bin/../../lib/gcc/pic32c/8.3.1/../../../../pic32c/lib/thumb/v7-a+simd/hard\libg-musl.a(__cvt_u.o)
 .bss           0x0000000000000000        0x0 c:/program files/microchip/xc32/v4.60/bin/bin/../../lib/gcc/pic32c/8.3.1/../../../../pic32c/lib/thumb/v7-a+simd/hard\libg-musl.a(__cvt_u.o)
 .xc_stack_usage
                0x0000000000000000       0x15 c:/program files/microchip/xc32/v4.60/bin/bin/../../lib/gcc/pic32c/8.3.1/../../../../pic32c/lib/thumb/v7-a+simd/hard\libg-musl.a(__cvt_u.o)
 .xc_stack_usage.hdr
                0x0000000000000000        0xe c:/program files/microchip/xc32/v4.60/bin/bin/../../lib/gcc/pic32c/8.3.1/../../../../pic32c/lib/thumb/v7-a+simd/hard\libg-musl.a(__cvt_u.o)
 .text          0x0000000000000000        0x0 c:/program files/microchip/xc32/v4.60/bin/bin/../../lib/gcc/pic32c/8.3.1/../../../../pic32c/lib/thumb/v7-a+simd/hard\libg-musl.a(__io_init_needed.o)
 .data          0x0000000000000000        0x0 c:/program files/microchip/xc32/v4.60/bin/bin/../../lib/gcc/pic32c/8.3.1/../../../../pic32c/lib/thumb/v7-a+simd/hard\libg-musl.a(__io_init_needed.o)
 .bss           0x0000000000000000        0x0 c:/program files/microchip/xc32/v4.60/bin/bin/../../lib/gcc/pic32c/8.3.1/../../../../pic32c/lib/thumb/v7-a+simd/hard\libg-musl.a(__io_init_needed.o)
 .xc_stack_usage
                0x0000000000000000       0x40 c:/program files/microchip/xc32/v4.60/bin/bin/../../lib/gcc/pic32c/8.3.1/../../../../pic32c/lib/thumb/v7-a+simd/hard\libg-musl.a(__io_init_needed.o)
 .xc_stack_usage.hdr
                0x0000000000000000        0xe c:/program files/microchip/xc32/v4.60/bin/bin/../../lib/gcc/pic32c/8.3.1/../../../../pic32c/lib/thumb/v7-a+simd/hard\libg-musl.a(__io_init_needed.o)
 .debug_info    0x0000000000000000       0xea c:/program files/microchip/xc32/v4.60/bin/bin/../../lib/gcc/pic32c/8.3.1/../../../../pic32c/lib/thumb/v7-a+simd/hard\libg-musl.a(__io_init_needed.o)
 .debug_abbrev  0x0000000000000000       0x84 c:/program files/microchip/xc32/v4.60/bin/bin/../../lib/gcc/pic32c/8.3.1/../../../../pic32c/lib/thumb/v7-a+simd/hard\libg-musl.a(__io_init_needed.o)
 .debug_aranges
                0x0000000000000000       0x28 c:/program files/microchip/xc32/v4.60/bin/bin/../../lib/gcc/pic32c/8.3.1/../../../../pic32c/lib/thumb/v7-a+simd/hard\libg-musl.a(__io_init_needed.o)
 .debug_ranges  0x0000000000000000       0x18 c:/program files/microchip/xc32/v4.60/bin/bin/../../lib/gcc/pic32c/8.3.1/../../../../pic32c/lib/thumb/v7-a+simd/hard\libg-musl.a(__io_init_needed.o)
 .debug_line    0x0000000000000000      0x12b c:/program files/microchip/xc32/v4.60/bin/bin/../../lib/gcc/pic32c/8.3.1/../../../../pic32c/lib/thumb/v7-a+simd/hard\libg-musl.a(__io_init_needed.o)
 .debug_str     0x0000000000000000      0x2e1 c:/program files/microchip/xc32/v4.60/bin/bin/../../lib/gcc/pic32c/8.3.1/../../../../pic32c/lib/thumb/v7-a+simd/hard\libg-musl.a(__io_init_needed.o)
 .comment       0x0000000000000000       0x2c c:/program files/microchip/xc32/v4.60/bin/bin/../../lib/gcc/pic32c/8.3.1/../../../../pic32c/lib/thumb/v7-a+simd/hard\libg-musl.a(__io_init_needed.o)
 .note.GNU-stack
                0x0000000000000000        0x0 c:/program files/microchip/xc32/v4.60/bin/bin/../../lib/gcc/pic32c/8.3.1/../../../../pic32c/lib/thumb/v7-a+simd/hard\libg-musl.a(__io_init_needed.o)
 .debug_frame   0x0000000000000000       0x30 c:/program files/microchip/xc32/v4.60/bin/bin/../../lib/gcc/pic32c/8.3.1/../../../../pic32c/lib/thumb/v7-a+simd/hard\libg-musl.a(__io_init_needed.o)
 .ARM.attributes
                0x0000000000000000       0x37 c:/program files/microchip/xc32/v4.60/bin/bin/../../lib/gcc/pic32c/8.3.1/../../../../pic32c/lib/thumb/v7-a+simd/hard\libg-musl.a(__io_init_needed.o)
 .text          0x0000000000000000        0x0 c:/program files/microchip/xc32/v4.60/bin/bin/../../lib/gcc/pic32c/8.3.1/../../../../pic32c/lib/thumb/v7-a+simd/hard\libg-musl.a(__io_rw_needed.o)
 .data          0x0000000000000000        0x0 c:/program files/microchip/xc32/v4.60/bin/bin/../../lib/gcc/pic32c/8.3.1/../../../../pic32c/lib/thumb/v7-a+simd/hard\libg-musl.a(__io_rw_needed.o)
 .bss           0x0000000000000000        0x0 c:/program files/microchip/xc32/v4.60/bin/bin/../../lib/gcc/pic32c/8.3.1/../../../../pic32c/lib/thumb/v7-a+simd/hard\libg-musl.a(__io_rw_needed.o)
 .xc_stack_usage
                0x0000000000000000       0x1c c:/program files/microchip/xc32/v4.60/bin/bin/../../lib/gcc/pic32c/8.3.1/../../../../pic32c/lib/thumb/v7-a+simd/hard\libg-musl.a(__io_rw_needed.o)
 .xc_stack_usage.hdr
                0x0000000000000000        0xe c:/program files/microchip/xc32/v4.60/bin/bin/../../lib/gcc/pic32c/8.3.1/../../../../pic32c/lib/thumb/v7-a+simd/hard\libg-musl.a(__io_rw_needed.o)
 .debug_info    0x0000000000000000       0xfe c:/program files/microchip/xc32/v4.60/bin/bin/../../lib/gcc/pic32c/8.3.1/../../../../pic32c/lib/thumb/v7-a+simd/hard\libg-musl.a(__io_rw_needed.o)
 .debug_abbrev  0x0000000000000000       0x75 c:/program files/microchip/xc32/v4.60/bin/bin/../../lib/gcc/pic32c/8.3.1/../../../../pic32c/lib/thumb/v7-a+simd/hard\libg-musl.a(__io_rw_needed.o)
 .debug_loc     0x0000000000000000       0x2c c:/program files/microchip/xc32/v4.60/bin/bin/../../lib/gcc/pic32c/8.3.1/../../../../pic32c/lib/thumb/v7-a+simd/hard\libg-musl.a(__io_rw_needed.o)
 .debug_aranges
                0x0000000000000000       0x20 c:/program files/microchip/xc32/v4.60/bin/bin/../../lib/gcc/pic32c/8.3.1/../../../../pic32c/lib/thumb/v7-a+simd/hard\libg-musl.a(__io_rw_needed.o)
 .debug_ranges  0x0000000000000000       0x10 c:/program files/microchip/xc32/v4.60/bin/bin/../../lib/gcc/pic32c/8.3.1/../../../../pic32c/lib/thumb/v7-a+simd/hard\libg-musl.a(__io_rw_needed.o)
 .debug_line    0x0000000000000000      0x130 c:/program files/microchip/xc32/v4.60/bin/bin/../../lib/gcc/pic32c/8.3.1/../../../../pic32c/lib/thumb/v7-a+simd/hard\libg-musl.a(__io_rw_needed.o)
 .debug_str     0x0000000000000000      0x2f0 c:/program files/microchip/xc32/v4.60/bin/bin/../../lib/gcc/pic32c/8.3.1/../../../../pic32c/lib/thumb/v7-a+simd/hard\libg-musl.a(__io_rw_needed.o)
 .comment       0x0000000000000000       0x2c c:/program files/microchip/xc32/v4.60/bin/bin/../../lib/gcc/pic32c/8.3.1/../../../../pic32c/lib/thumb/v7-a+simd/hard\libg-musl.a(__io_rw_needed.o)
 .note.GNU-stack
                0x0000000000000000        0x0 c:/program files/microchip/xc32/v4.60/bin/bin/../../lib/gcc/pic32c/8.3.1/../../../../pic32c/lib/thumb/v7-a+simd/hard\libg-musl.a(__io_rw_needed.o)
 .debug_frame   0x0000000000000000       0x2c c:/program files/microchip/xc32/v4.60/bin/bin/../../lib/gcc/pic32c/8.3.1/../../../../pic32c/lib/thumb/v7-a+simd/hard\libg-musl.a(__io_rw_needed.o)
 .ARM.attributes
                0x0000000000000000       0x37 c:/program files/microchip/xc32/v4.60/bin/bin/../../lib/gcc/pic32c/8.3.1/../../../../pic32c/lib/thumb/v7-a+simd/hard\libg-musl.a(__io_rw_needed.o)
 .text          0x0000000000000000        0x0 c:/program files/microchip/xc32/v4.60/bin/bin/../../lib/gcc/pic32c/8.3.1/../../../../pic32c/lib/thumb/v7-a+simd/hard\libg-musl.a(__pop_float.o)
 .data          0x0000000000000000        0x0 c:/program files/microchip/xc32/v4.60/bin/bin/../../lib/gcc/pic32c/8.3.1/../../../../pic32c/lib/thumb/v7-a+simd/hard\libg-musl.a(__pop_float.o)
 .bss           0x0000000000000000        0x0 c:/program files/microchip/xc32/v4.60/bin/bin/../../lib/gcc/pic32c/8.3.1/../../../../pic32c/lib/thumb/v7-a+simd/hard\libg-musl.a(__pop_float.o)
 .xc_stack_usage
                0x0000000000000000       0x19 c:/program files/microchip/xc32/v4.60/bin/bin/../../lib/gcc/pic32c/8.3.1/../../../../pic32c/lib/thumb/v7-a+simd/hard\libg-musl.a(__pop_float.o)
 .xc_stack_usage.hdr
                0x0000000000000000        0xe c:/program files/microchip/xc32/v4.60/bin/bin/../../lib/gcc/pic32c/8.3.1/../../../../pic32c/lib/thumb/v7-a+simd/hard\libg-musl.a(__pop_float.o)
 .text          0x0000000000000000        0x0 c:/program files/microchip/xc32/v4.60/bin/bin/../../lib/gcc/pic32c/8.3.1/../../../../pic32c/lib/thumb/v7-a+simd/hard\libg-musl.a(__stdio_read.o)
 .data          0x0000000000000000        0x0 c:/program files/microchip/xc32/v4.60/bin/bin/../../lib/gcc/pic32c/8.3.1/../../../../pic32c/lib/thumb/v7-a+simd/hard\libg-musl.a(__stdio_read.o)
 .bss           0x0000000000000000        0x0 c:/program files/microchip/xc32/v4.60/bin/bin/../../lib/gcc/pic32c/8.3.1/../../../../pic32c/lib/thumb/v7-a+simd/hard\libg-musl.a(__stdio_read.o)
 .xc_stack_usage
                0x0000000000000000       0x1a c:/program files/microchip/xc32/v4.60/bin/bin/../../lib/gcc/pic32c/8.3.1/../../../../pic32c/lib/thumb/v7-a+simd/hard\libg-musl.a(__stdio_read.o)
 .xc_stack_usage.hdr
                0x0000000000000000        0xe c:/program files/microchip/xc32/v4.60/bin/bin/../../lib/gcc/pic32c/8.3.1/../../../../pic32c/lib/thumb/v7-a+simd/hard\libg-musl.a(__stdio_read.o)
 .text          0x0000000000000000        0x0 c:/program files/microchip/xc32/v4.60/bin/bin/../../lib/gcc/pic32c/8.3.1/../../../../pic32c/lib/thumb/v7-a+simd/hard\libg-musl.a(__towrite_rw.o)
 .data          0x0000000000000000        0x0 c:/program files/microchip/xc32/v4.60/bin/bin/../../lib/gcc/pic32c/8.3.1/../../../../pic32c/lib/thumb/v7-a+simd/hard\libg-musl.a(__towrite_rw.o)
 .bss           0x0000000000000000        0x0 c:/program files/microchip/xc32/v4.60/bin/bin/../../lib/gcc/pic32c/8.3.1/../../../../pic32c/lib/thumb/v7-a+simd/hard\libg-musl.a(__towrite_rw.o)
 .xc_stack_usage
                0x0000000000000000       0x1a c:/program files/microchip/xc32/v4.60/bin/bin/../../lib/gcc/pic32c/8.3.1/../../../../pic32c/lib/thumb/v7-a+simd/hard\libg-musl.a(__towrite_rw.o)
 .xc_stack_usage.hdr
                0x0000000000000000        0xe c:/program files/microchip/xc32/v4.60/bin/bin/../../lib/gcc/pic32c/8.3.1/../../../../pic32c/lib/thumb/v7-a+simd/hard\libg-musl.a(__towrite_rw.o)
 .text          0x0000000000000000        0x0 c:/program files/microchip/xc32/v4.60/bin/bin/../../lib/gcc/pic32c/8.3.1/../../../../pic32c/lib/thumb/v7-a+simd/hard\libg-musl.a(fwrite.o)
 .data          0x0000000000000000        0x0 c:/program files/microchip/xc32/v4.60/bin/bin/../../lib/gcc/pic32c/8.3.1/../../../../pic32c/lib/thumb/v7-a+simd/hard\libg-musl.a(fwrite.o)
 .bss           0x0000000000000000        0x0 c:/program files/microchip/xc32/v4.60/bin/bin/../../lib/gcc/pic32c/8.3.1/../../../../pic32c/lib/thumb/v7-a+simd/hard\libg-musl.a(fwrite.o)
 .xc_stack_usage
                0x0000000000000000       0x2e c:/program files/microchip/xc32/v4.60/bin/bin/../../lib/gcc/pic32c/8.3.1/../../../../pic32c/lib/thumb/v7-a+simd/hard\libg-musl.a(fwrite.o)
 .text.__fwrite_min
                0x0000000000000000        0x6 c:/program files/microchip/xc32/v4.60/bin/bin/../../lib/gcc/pic32c/8.3.1/../../../../pic32c/lib/thumb/v7-a+simd/hard\libg-musl.a(fwrite.o)
 .xc_stack_usage.hdr
                0x0000000000000000        0xe c:/program files/microchip/xc32/v4.60/bin/bin/../../lib/gcc/pic32c/8.3.1/../../../../pic32c/lib/thumb/v7-a+simd/hard\libg-musl.a(fwrite.o)
 .text          0x0000000000000000        0x0 c:/program files/microchip/xc32/v4.60/bin/bin/../../lib/gcc/pic32c/8.3.1/../../../../pic32c/lib/thumb/v7-a+simd/hard\libg-musl.a(putc.o)
 .data          0x0000000000000000        0x0 c:/program files/microchip/xc32/v4.60/bin/bin/../../lib/gcc/pic32c/8.3.1/../../../../pic32c/lib/thumb/v7-a+simd/hard\libg-musl.a(putc.o)
 .bss           0x0000000000000000        0x0 c:/program files/microchip/xc32/v4.60/bin/bin/../../lib/gcc/pic32c/8.3.1/../../../../pic32c/lib/thumb/v7-a+simd/hard\libg-musl.a(putc.o)
 .xc_stack_usage
                0x0000000000000000       0x4f c:/program files/microchip/xc32/v4.60/bin/bin/../../lib/gcc/pic32c/8.3.1/../../../../pic32c/lib/thumb/v7-a+simd/hard\libg-musl.a(putc.o)
 .xc_stack_usage.hdr
                0x0000000000000000        0xe c:/program files/microchip/xc32/v4.60/bin/bin/../../lib/gcc/pic32c/8.3.1/../../../../pic32c/lib/thumb/v7-a+simd/hard\libg-musl.a(putc.o)
 .text          0x0000000000000000        0x0 c:/program files/microchip/xc32/v4.60/bin/bin/../../lib/gcc/pic32c/8.3.1/../../../../pic32c/lib/thumb/v7-a+simd/hard\libg-musl.a(setvbuf.o)
 .data          0x0000000000000000        0x0 c:/program files/microchip/xc32/v4.60/bin/bin/../../lib/gcc/pic32c/8.3.1/../../../../pic32c/lib/thumb/v7-a+simd/hard\libg-musl.a(setvbuf.o)
 .bss           0x0000000000000000        0x0 c:/program files/microchip/xc32/v4.60/bin/bin/../../lib/gcc/pic32c/8.3.1/../../../../pic32c/lib/thumb/v7-a+simd/hard\libg-musl.a(setvbuf.o)
 .xc_stack_usage
                0x0000000000000000       0x36 c:/program files/microchip/xc32/v4.60/bin/bin/../../lib/gcc/pic32c/8.3.1/../../../../pic32c/lib/thumb/v7-a+simd/hard\libg-musl.a(setvbuf.o)
 .xc_stack_usage.hdr
                0x0000000000000000        0xe c:/program files/microchip/xc32/v4.60/bin/bin/../../lib/gcc/pic32c/8.3.1/../../../../pic32c/lib/thumb/v7-a+simd/hard\libg-musl.a(setvbuf.o)
 .text          0x0000000000000000        0x0 c:/program files/microchip/xc32/v4.60/bin/bin/../../lib/gcc/pic32c/8.3.1/../../../../pic32c/lib/thumb/v7-a+simd/hard\libg-musl.a(readv.o)
 .data          0x0000000000000000        0x0 c:/program files/microchip/xc32/v4.60/bin/bin/../../lib/gcc/pic32c/8.3.1/../../../../pic32c/lib/thumb/v7-a+simd/hard\libg-musl.a(readv.o)
 .bss           0x0000000000000000        0x0 c:/program files/microchip/xc32/v4.60/bin/bin/../../lib/gcc/pic32c/8.3.1/../../../../pic32c/lib/thumb/v7-a+simd/hard\libg-musl.a(readv.o)
 .xc_stack_usage
                0x0000000000000000       0x15 c:/program files/microchip/xc32/v4.60/bin/bin/../../lib/gcc/pic32c/8.3.1/../../../../pic32c/lib/thumb/v7-a+simd/hard\libg-musl.a(readv.o)
 .xc_stack_usage.hdr
                0x0000000000000000        0xe c:/program files/microchip/xc32/v4.60/bin/bin/../../lib/gcc/pic32c/8.3.1/../../../../pic32c/lib/thumb/v7-a+simd/hard\libg-musl.a(readv.o)
 .text          0x0000000000000000        0x0 c:/program files/microchip/xc32/v4.60/bin/bin/../../lib/gcc/pic32c/8.3.1/../../../../pic32c/lib/thumb/v7-a+simd/hard\libg-musl.a(__fopen_rw.o)
 .data          0x0000000000000000        0x0 c:/program files/microchip/xc32/v4.60/bin/bin/../../lib/gcc/pic32c/8.3.1/../../../../pic32c/lib/thumb/v7-a+simd/hard\libg-musl.a(__fopen_rw.o)
 .bss           0x0000000000000000        0x0 c:/program files/microchip/xc32/v4.60/bin/bin/../../lib/gcc/pic32c/8.3.1/../../../../pic32c/lib/thumb/v7-a+simd/hard\libg-musl.a(__fopen_rw.o)
 .xc_stack_usage
                0x0000000000000000       0x18 c:/program files/microchip/xc32/v4.60/bin/bin/../../lib/gcc/pic32c/8.3.1/../../../../pic32c/lib/thumb/v7-a+simd/hard\libg-musl.a(__fopen_rw.o)
 .text.__fopen_rw
                0x0000000000000000       0x4c c:/program files/microchip/xc32/v4.60/bin/bin/../../lib/gcc/pic32c/8.3.1/../../../../pic32c/lib/thumb/v7-a+simd/hard\libg-musl.a(__fopen_rw.o)
 .xc_stack_usage.hdr
                0x0000000000000000        0xe c:/program files/microchip/xc32/v4.60/bin/bin/../../lib/gcc/pic32c/8.3.1/../../../../pic32c/lib/thumb/v7-a+simd/hard\libg-musl.a(__fopen_rw.o)
 .debug_info    0x0000000000000000      0x3dc c:/program files/microchip/xc32/v4.60/bin/bin/../../lib/gcc/pic32c/8.3.1/../../../../pic32c/lib/thumb/v7-a+simd/hard\libg-musl.a(__fopen_rw.o)
 .debug_abbrev  0x0000000000000000      0x12c c:/program files/microchip/xc32/v4.60/bin/bin/../../lib/gcc/pic32c/8.3.1/../../../../pic32c/lib/thumb/v7-a+simd/hard\libg-musl.a(__fopen_rw.o)
 .debug_loc     0x0000000000000000       0x4f c:/program files/microchip/xc32/v4.60/bin/bin/../../lib/gcc/pic32c/8.3.1/../../../../pic32c/lib/thumb/v7-a+simd/hard\libg-musl.a(__fopen_rw.o)
 .debug_aranges
                0x0000000000000000       0x20 c:/program files/microchip/xc32/v4.60/bin/bin/../../lib/gcc/pic32c/8.3.1/../../../../pic32c/lib/thumb/v7-a+simd/hard\libg-musl.a(__fopen_rw.o)
 .debug_ranges  0x0000000000000000       0x10 c:/program files/microchip/xc32/v4.60/bin/bin/../../lib/gcc/pic32c/8.3.1/../../../../pic32c/lib/thumb/v7-a+simd/hard\libg-musl.a(__fopen_rw.o)
 .debug_line    0x0000000000000000      0x285 c:/program files/microchip/xc32/v4.60/bin/bin/../../lib/gcc/pic32c/8.3.1/../../../../pic32c/lib/thumb/v7-a+simd/hard\libg-musl.a(__fopen_rw.o)
 .debug_str     0x0000000000000000      0x362 c:/program files/microchip/xc32/v4.60/bin/bin/../../lib/gcc/pic32c/8.3.1/../../../../pic32c/lib/thumb/v7-a+simd/hard\libg-musl.a(__fopen_rw.o)
 .comment       0x0000000000000000       0x2c c:/program files/microchip/xc32/v4.60/bin/bin/../../lib/gcc/pic32c/8.3.1/../../../../pic32c/lib/thumb/v7-a+simd/hard\libg-musl.a(__fopen_rw.o)
 .note.GNU-stack
                0x0000000000000000        0x0 c:/program files/microchip/xc32/v4.60/bin/bin/../../lib/gcc/pic32c/8.3.1/../../../../pic32c/lib/thumb/v7-a+simd/hard\libg-musl.a(__fopen_rw.o)
 .debug_frame   0x0000000000000000       0x28 c:/program files/microchip/xc32/v4.60/bin/bin/../../lib/gcc/pic32c/8.3.1/../../../../pic32c/lib/thumb/v7-a+simd/hard\libg-musl.a(__fopen_rw.o)
 .ARM.attributes
                0x0000000000000000       0x37 c:/program files/microchip/xc32/v4.60/bin/bin/../../lib/gcc/pic32c/8.3.1/../../../../pic32c/lib/thumb/v7-a+simd/hard\libg-musl.a(__fopen_rw.o)
 .text          0x0000000000000000        0x0 c:/program files/microchip/xc32/v4.60/bin/bin/../../lib/gcc/pic32c/8.3.1/../../../../pic32c/lib/thumb/v7-a+simd/hard\libg-musl.a(__ftello_rw.o)
 .data          0x0000000000000000        0x0 c:/program files/microchip/xc32/v4.60/bin/bin/../../lib/gcc/pic32c/8.3.1/../../../../pic32c/lib/thumb/v7-a+simd/hard\libg-musl.a(__ftello_rw.o)
 .bss           0x0000000000000000        0x0 c:/program files/microchip/xc32/v4.60/bin/bin/../../lib/gcc/pic32c/8.3.1/../../../../pic32c/lib/thumb/v7-a+simd/hard\libg-musl.a(__ftello_rw.o)
 .xc_stack_usage
                0x0000000000000000       0x1d c:/program files/microchip/xc32/v4.60/bin/bin/../../lib/gcc/pic32c/8.3.1/../../../../pic32c/lib/thumb/v7-a+simd/hard\libg-musl.a(__ftello_rw.o)
 .text.__ftello_adj_rw
                0x0000000000000000       0x2c c:/program files/microchip/xc32/v4.60/bin/bin/../../lib/gcc/pic32c/8.3.1/../../../../pic32c/lib/thumb/v7-a+simd/hard\libg-musl.a(__ftello_rw.o)
 .xc_stack_usage.hdr
                0x0000000000000000        0xe c:/program files/microchip/xc32/v4.60/bin/bin/../../lib/gcc/pic32c/8.3.1/../../../../pic32c/lib/thumb/v7-a+simd/hard\libg-musl.a(__ftello_rw.o)
 .debug_info    0x0000000000000000      0x34a c:/program files/microchip/xc32/v4.60/bin/bin/../../lib/gcc/pic32c/8.3.1/../../../../pic32c/lib/thumb/v7-a+simd/hard\libg-musl.a(__ftello_rw.o)
 .debug_abbrev  0x0000000000000000      0x10b c:/program files/microchip/xc32/v4.60/bin/bin/../../lib/gcc/pic32c/8.3.1/../../../../pic32c/lib/thumb/v7-a+simd/hard\libg-musl.a(__ftello_rw.o)
 .debug_loc     0x0000000000000000       0x45 c:/program files/microchip/xc32/v4.60/bin/bin/../../lib/gcc/pic32c/8.3.1/../../../../pic32c/lib/thumb/v7-a+simd/hard\libg-musl.a(__ftello_rw.o)
 .debug_aranges
                0x0000000000000000       0x20 c:/program files/microchip/xc32/v4.60/bin/bin/../../lib/gcc/pic32c/8.3.1/../../../../pic32c/lib/thumb/v7-a+simd/hard\libg-musl.a(__ftello_rw.o)
 .debug_ranges  0x0000000000000000       0x10 c:/program files/microchip/xc32/v4.60/bin/bin/../../lib/gcc/pic32c/8.3.1/../../../../pic32c/lib/thumb/v7-a+simd/hard\libg-musl.a(__ftello_rw.o)
 .debug_line    0x0000000000000000      0x1d1 c:/program files/microchip/xc32/v4.60/bin/bin/../../lib/gcc/pic32c/8.3.1/../../../../pic32c/lib/thumb/v7-a+simd/hard\libg-musl.a(__ftello_rw.o)
 .debug_str     0x0000000000000000      0x34c c:/program files/microchip/xc32/v4.60/bin/bin/../../lib/gcc/pic32c/8.3.1/../../../../pic32c/lib/thumb/v7-a+simd/hard\libg-musl.a(__ftello_rw.o)
 .comment       0x0000000000000000       0x2c c:/program files/microchip/xc32/v4.60/bin/bin/../../lib/gcc/pic32c/8.3.1/../../../../pic32c/lib/thumb/v7-a+simd/hard\libg-musl.a(__ftello_rw.o)
 .note.GNU-stack
                0x0000000000000000        0x0 c:/program files/microchip/xc32/v4.60/bin/bin/../../lib/gcc/pic32c/8.3.1/../../../../pic32c/lib/thumb/v7-a+simd/hard\libg-musl.a(__ftello_rw.o)
 .debug_frame   0x0000000000000000       0x2c c:/program files/microchip/xc32/v4.60/bin/bin/../../lib/gcc/pic32c/8.3.1/../../../../pic32c/lib/thumb/v7-a+simd/hard\libg-musl.a(__ftello_rw.o)
 .ARM.attributes
                0x0000000000000000       0x37 c:/program files/microchip/xc32/v4.60/bin/bin/../../lib/gcc/pic32c/8.3.1/../../../../pic32c/lib/thumb/v7-a+simd/hard\libg-musl.a(__ftello_rw.o)
 .text          0x0000000000000000        0x0 c:/program files/microchip/xc32/v4.60/bin/bin/../../lib/gcc/pic32c/8.3.1/../../../../pic32c/lib/thumb/v7-a+simd/hard\libg-musl.a(__init_stdio.o)
 .data          0x0000000000000000        0x0 c:/program files/microchip/xc32/v4.60/bin/bin/../../lib/gcc/pic32c/8.3.1/../../../../pic32c/lib/thumb/v7-a+simd/hard\libg-musl.a(__init_stdio.o)
 .bss           0x0000000000000000        0x0 c:/program files/microchip/xc32/v4.60/bin/bin/../../lib/gcc/pic32c/8.3.1/../../../../pic32c/lib/thumb/v7-a+simd/hard\libg-musl.a(__init_stdio.o)
 .xc_stack_usage
                0x0000000000000000       0x2f c:/program files/microchip/xc32/v4.60/bin/bin/../../lib/gcc/pic32c/8.3.1/../../../../pic32c/lib/thumb/v7-a+simd/hard\libg-musl.a(__init_stdio.o)
 .xc_stack_usage.hdr
                0x0000000000000000        0xe c:/program files/microchip/xc32/v4.60/bin/bin/../../lib/gcc/pic32c/8.3.1/../../../../pic32c/lib/thumb/v7-a+simd/hard\libg-musl.a(__init_stdio.o)
 .text          0x0000000000000000        0x0 c:/program files/microchip/xc32/v4.60/bin/bin/../../lib/gcc/pic32c/8.3.1/../../../../pic32c/lib/thumb/v7-a+simd/hard\libg-musl.a(__io_buf_needed.o)
 .data          0x0000000000000000        0x0 c:/program files/microchip/xc32/v4.60/bin/bin/../../lib/gcc/pic32c/8.3.1/../../../../pic32c/lib/thumb/v7-a+simd/hard\libg-musl.a(__io_buf_needed.o)
 .bss           0x0000000000000000        0x0 c:/program files/microchip/xc32/v4.60/bin/bin/../../lib/gcc/pic32c/8.3.1/../../../../pic32c/lib/thumb/v7-a+simd/hard\libg-musl.a(__io_buf_needed.o)
 .xc_stack_usage
                0x0000000000000000       0x1d c:/program files/microchip/xc32/v4.60/bin/bin/../../lib/gcc/pic32c/8.3.1/../../../../pic32c/lib/thumb/v7-a+simd/hard\libg-musl.a(__io_buf_needed.o)
 .xc_stack_usage.hdr
                0x0000000000000000        0xe c:/program files/microchip/xc32/v4.60/bin/bin/../../lib/gcc/pic32c/8.3.1/../../../../pic32c/lib/thumb/v7-a+simd/hard\libg-musl.a(__io_buf_needed.o)
 .debug_info    0x0000000000000000      0x143 c:/program files/microchip/xc32/v4.60/bin/bin/../../lib/gcc/pic32c/8.3.1/../../../../pic32c/lib/thumb/v7-a+simd/hard\libg-musl.a(__io_buf_needed.o)
 .debug_abbrev  0x0000000000000000       0x75 c:/program files/microchip/xc32/v4.60/bin/bin/../../lib/gcc/pic32c/8.3.1/../../../../pic32c/lib/thumb/v7-a+simd/hard\libg-musl.a(__io_buf_needed.o)
 .debug_loc     0x0000000000000000       0x2c c:/program files/microchip/xc32/v4.60/bin/bin/../../lib/gcc/pic32c/8.3.1/../../../../pic32c/lib/thumb/v7-a+simd/hard\libg-musl.a(__io_buf_needed.o)
 .debug_aranges
                0x0000000000000000       0x20 c:/program files/microchip/xc32/v4.60/bin/bin/../../lib/gcc/pic32c/8.3.1/../../../../pic32c/lib/thumb/v7-a+simd/hard\libg-musl.a(__io_buf_needed.o)
 .debug_ranges  0x0000000000000000       0x10 c:/program files/microchip/xc32/v4.60/bin/bin/../../lib/gcc/pic32c/8.3.1/../../../../pic32c/lib/thumb/v7-a+simd/hard\libg-musl.a(__io_buf_needed.o)
 .debug_line    0x0000000000000000      0x134 c:/program files/microchip/xc32/v4.60/bin/bin/../../lib/gcc/pic32c/8.3.1/../../../../pic32c/lib/thumb/v7-a+simd/hard\libg-musl.a(__io_buf_needed.o)
 .debug_str     0x0000000000000000      0x31c c:/program files/microchip/xc32/v4.60/bin/bin/../../lib/gcc/pic32c/8.3.1/../../../../pic32c/lib/thumb/v7-a+simd/hard\libg-musl.a(__io_buf_needed.o)
 .comment       0x0000000000000000       0x2c c:/program files/microchip/xc32/v4.60/bin/bin/../../lib/gcc/pic32c/8.3.1/../../../../pic32c/lib/thumb/v7-a+simd/hard\libg-musl.a(__io_buf_needed.o)
 .note.GNU-stack
                0x0000000000000000        0x0 c:/program files/microchip/xc32/v4.60/bin/bin/../../lib/gcc/pic32c/8.3.1/../../../../pic32c/lib/thumb/v7-a+simd/hard\libg-musl.a(__io_buf_needed.o)
 .debug_frame   0x0000000000000000       0x2c c:/program files/microchip/xc32/v4.60/bin/bin/../../lib/gcc/pic32c/8.3.1/../../../../pic32c/lib/thumb/v7-a+simd/hard\libg-musl.a(__io_buf_needed.o)
 .ARM.attributes
                0x0000000000000000       0x37 c:/program files/microchip/xc32/v4.60/bin/bin/../../lib/gcc/pic32c/8.3.1/../../../../pic32c/lib/thumb/v7-a+simd/hard\libg-musl.a(__io_buf_needed.o)
 .text          0x0000000000000000        0x0 c:/program files/microchip/xc32/v4.60/bin/bin/../../lib/gcc/pic32c/8.3.1/../../../../pic32c/lib/thumb/v7-a+simd/hard\libg-musl.a(__io_file_needed.o)
 .data          0x0000000000000000        0x0 c:/program files/microchip/xc32/v4.60/bin/bin/../../lib/gcc/pic32c/8.3.1/../../../../pic32c/lib/thumb/v7-a+simd/hard\libg-musl.a(__io_file_needed.o)
 .bss           0x0000000000000000        0x0 c:/program files/microchip/xc32/v4.60/bin/bin/../../lib/gcc/pic32c/8.3.1/../../../../pic32c/lib/thumb/v7-a+simd/hard\libg-musl.a(__io_file_needed.o)
 .xc_stack_usage
                0x0000000000000000       0x1e c:/program files/microchip/xc32/v4.60/bin/bin/../../lib/gcc/pic32c/8.3.1/../../../../pic32c/lib/thumb/v7-a+simd/hard\libg-musl.a(__io_file_needed.o)
 .xc_stack_usage.hdr
                0x0000000000000000        0xe c:/program files/microchip/xc32/v4.60/bin/bin/../../lib/gcc/pic32c/8.3.1/../../../../pic32c/lib/thumb/v7-a+simd/hard\libg-musl.a(__io_file_needed.o)
 .debug_info    0x0000000000000000       0xb8 c:/program files/microchip/xc32/v4.60/bin/bin/../../lib/gcc/pic32c/8.3.1/../../../../pic32c/lib/thumb/v7-a+simd/hard\libg-musl.a(__io_file_needed.o)
 .debug_abbrev  0x0000000000000000       0x6a c:/program files/microchip/xc32/v4.60/bin/bin/../../lib/gcc/pic32c/8.3.1/../../../../pic32c/lib/thumb/v7-a+simd/hard\libg-musl.a(__io_file_needed.o)
 .debug_aranges
                0x0000000000000000       0x20 c:/program files/microchip/xc32/v4.60/bin/bin/../../lib/gcc/pic32c/8.3.1/../../../../pic32c/lib/thumb/v7-a+simd/hard\libg-musl.a(__io_file_needed.o)
 .debug_ranges  0x0000000000000000       0x10 c:/program files/microchip/xc32/v4.60/bin/bin/../../lib/gcc/pic32c/8.3.1/../../../../pic32c/lib/thumb/v7-a+simd/hard\libg-musl.a(__io_file_needed.o)
 .debug_line    0x0000000000000000       0xac c:/program files/microchip/xc32/v4.60/bin/bin/../../lib/gcc/pic32c/8.3.1/../../../../pic32c/lib/thumb/v7-a+simd/hard\libg-musl.a(__io_file_needed.o)
 .debug_str     0x0000000000000000      0x2b4 c:/program files/microchip/xc32/v4.60/bin/bin/../../lib/gcc/pic32c/8.3.1/../../../../pic32c/lib/thumb/v7-a+simd/hard\libg-musl.a(__io_file_needed.o)
 .comment       0x0000000000000000       0x2c c:/program files/microchip/xc32/v4.60/bin/bin/../../lib/gcc/pic32c/8.3.1/../../../../pic32c/lib/thumb/v7-a+simd/hard\libg-musl.a(__io_file_needed.o)
 .note.GNU-stack
                0x0000000000000000        0x0 c:/program files/microchip/xc32/v4.60/bin/bin/../../lib/gcc/pic32c/8.3.1/../../../../pic32c/lib/thumb/v7-a+simd/hard\libg-musl.a(__io_file_needed.o)
 .debug_frame   0x0000000000000000       0x20 c:/program files/microchip/xc32/v4.60/bin/bin/../../lib/gcc/pic32c/8.3.1/../../../../pic32c/lib/thumb/v7-a+simd/hard\libg-musl.a(__io_file_needed.o)
 .ARM.attributes
                0x0000000000000000       0x37 c:/program files/microchip/xc32/v4.60/bin/bin/../../lib/gcc/pic32c/8.3.1/../../../../pic32c/lib/thumb/v7-a+simd/hard\libg-musl.a(__io_file_needed.o)
 .text          0x0000000000000000        0x0 c:/program files/microchip/xc32/v4.60/bin/bin/../../lib/gcc/pic32c/8.3.1/../../../../pic32c/lib/thumb/v7-a+simd/hard\libg-musl.a(__io_std_needed.o)
 .data          0x0000000000000000        0x0 c:/program files/microchip/xc32/v4.60/bin/bin/../../lib/gcc/pic32c/8.3.1/../../../../pic32c/lib/thumb/v7-a+simd/hard\libg-musl.a(__io_std_needed.o)
 .bss           0x0000000000000000        0x0 c:/program files/microchip/xc32/v4.60/bin/bin/../../lib/gcc/pic32c/8.3.1/../../../../pic32c/lib/thumb/v7-a+simd/hard\libg-musl.a(__io_std_needed.o)
 .xc_stack_usage
                0x0000000000000000       0x1d c:/program files/microchip/xc32/v4.60/bin/bin/../../lib/gcc/pic32c/8.3.1/../../../../pic32c/lib/thumb/v7-a+simd/hard\libg-musl.a(__io_std_needed.o)
 .xc_stack_usage.hdr
                0x0000000000000000        0xe c:/program files/microchip/xc32/v4.60/bin/bin/../../lib/gcc/pic32c/8.3.1/../../../../pic32c/lib/thumb/v7-a+simd/hard\libg-musl.a(__io_std_needed.o)
 .debug_info    0x0000000000000000      0x12c c:/program files/microchip/xc32/v4.60/bin/bin/../../lib/gcc/pic32c/8.3.1/../../../../pic32c/lib/thumb/v7-a+simd/hard\libg-musl.a(__io_std_needed.o)
 .debug_abbrev  0x0000000000000000       0x75 c:/program files/microchip/xc32/v4.60/bin/bin/../../lib/gcc/pic32c/8.3.1/../../../../pic32c/lib/thumb/v7-a+simd/hard\libg-musl.a(__io_std_needed.o)
 .debug_loc     0x0000000000000000       0x2c c:/program files/microchip/xc32/v4.60/bin/bin/../../lib/gcc/pic32c/8.3.1/../../../../pic32c/lib/thumb/v7-a+simd/hard\libg-musl.a(__io_std_needed.o)
 .debug_aranges
                0x0000000000000000       0x20 c:/program files/microchip/xc32/v4.60/bin/bin/../../lib/gcc/pic32c/8.3.1/../../../../pic32c/lib/thumb/v7-a+simd/hard\libg-musl.a(__io_std_needed.o)
 .debug_ranges  0x0000000000000000       0x10 c:/program files/microchip/xc32/v4.60/bin/bin/../../lib/gcc/pic32c/8.3.1/../../../../pic32c/lib/thumb/v7-a+simd/hard\libg-musl.a(__io_std_needed.o)
 .debug_line    0x0000000000000000      0x133 c:/program files/microchip/xc32/v4.60/bin/bin/../../lib/gcc/pic32c/8.3.1/../../../../pic32c/lib/thumb/v7-a+simd/hard\libg-musl.a(__io_std_needed.o)
 .debug_str     0x0000000000000000      0x310 c:/program files/microchip/xc32/v4.60/bin/bin/../../lib/gcc/pic32c/8.3.1/../../../../pic32c/lib/thumb/v7-a+simd/hard\libg-musl.a(__io_std_needed.o)
 .comment       0x0000000000000000       0x2c c:/program files/microchip/xc32/v4.60/bin/bin/../../lib/gcc/pic32c/8.3.1/../../../../pic32c/lib/thumb/v7-a+simd/hard\libg-musl.a(__io_std_needed.o)
 .note.GNU-stack
                0x0000000000000000        0x0 c:/program files/microchip/xc32/v4.60/bin/bin/../../lib/gcc/pic32c/8.3.1/../../../../pic32c/lib/thumb/v7-a+simd/hard\libg-musl.a(__io_std_needed.o)
 .debug_frame   0x0000000000000000       0x2c c:/program files/microchip/xc32/v4.60/bin/bin/../../lib/gcc/pic32c/8.3.1/../../../../pic32c/lib/thumb/v7-a+simd/hard\libg-musl.a(__io_std_needed.o)
 .ARM.attributes
                0x0000000000000000       0x37 c:/program files/microchip/xc32/v4.60/bin/bin/../../lib/gcc/pic32c/8.3.1/../../../../pic32c/lib/thumb/v7-a+simd/hard\libg-musl.a(__io_std_needed.o)
 .text          0x0000000000000000        0x0 c:/program files/microchip/xc32/v4.60/bin/bin/../../lib/gcc/pic32c/8.3.1/../../../../pic32c/lib/thumb/v7-a+simd/hard\libg-musl.a(__out.o)
 .data          0x0000000000000000        0x0 c:/program files/microchip/xc32/v4.60/bin/bin/../../lib/gcc/pic32c/8.3.1/../../../../pic32c/lib/thumb/v7-a+simd/hard\libg-musl.a(__out.o)
 .bss           0x0000000000000000        0x0 c:/program files/microchip/xc32/v4.60/bin/bin/../../lib/gcc/pic32c/8.3.1/../../../../pic32c/lib/thumb/v7-a+simd/hard\libg-musl.a(__out.o)
 .xc_stack_usage
                0x0000000000000000       0x2d c:/program files/microchip/xc32/v4.60/bin/bin/../../lib/gcc/pic32c/8.3.1/../../../../pic32c/lib/thumb/v7-a+simd/hard\libg-musl.a(__out.o)
 .xc_stack_usage.hdr
                0x0000000000000000        0xe c:/program files/microchip/xc32/v4.60/bin/bin/../../lib/gcc/pic32c/8.3.1/../../../../pic32c/lib/thumb/v7-a+simd/hard\libg-musl.a(__out.o)
 .text          0x0000000000000000        0x0 c:/program files/microchip/xc32/v4.60/bin/bin/../../lib/gcc/pic32c/8.3.1/../../../../pic32c/lib/thumb/v7-a+simd/hard\libg-musl.a(__putc.o)
 .data          0x0000000000000000        0x0 c:/program files/microchip/xc32/v4.60/bin/bin/../../lib/gcc/pic32c/8.3.1/../../../../pic32c/lib/thumb/v7-a+simd/hard\libg-musl.a(__putc.o)
 .bss           0x0000000000000000        0x0 c:/program files/microchip/xc32/v4.60/bin/bin/../../lib/gcc/pic32c/8.3.1/../../../../pic32c/lib/thumb/v7-a+simd/hard\libg-musl.a(__putc.o)
 .xc_stack_usage
                0x0000000000000000       0x14 c:/program files/microchip/xc32/v4.60/bin/bin/../../lib/gcc/pic32c/8.3.1/../../../../pic32c/lib/thumb/v7-a+simd/hard\libg-musl.a(__putc.o)
 .xc_stack_usage.hdr
                0x0000000000000000        0xe c:/program files/microchip/xc32/v4.60/bin/bin/../../lib/gcc/pic32c/8.3.1/../../../../pic32c/lib/thumb/v7-a+simd/hard\libg-musl.a(__putc.o)
 .text          0x0000000000000000        0x0 c:/program files/microchip/xc32/v4.60/bin/bin/../../lib/gcc/pic32c/8.3.1/../../../../pic32c/lib/thumb/v7-a+simd/hard\libg-musl.a(__stderr.o)
 .data          0x0000000000000000       0x60 c:/program files/microchip/xc32/v4.60/bin/bin/../../lib/gcc/pic32c/8.3.1/../../../../pic32c/lib/thumb/v7-a+simd/hard\libg-musl.a(__stderr.o)
 .bss           0x0000000000000000        0x0 c:/program files/microchip/xc32/v4.60/bin/bin/../../lib/gcc/pic32c/8.3.1/../../../../pic32c/lib/thumb/v7-a+simd/hard\libg-musl.a(__stderr.o)
 .xc_stack_usage
                0x0000000000000000       0x50 c:/program files/microchip/xc32/v4.60/bin/bin/../../lib/gcc/pic32c/8.3.1/../../../../pic32c/lib/thumb/v7-a+simd/hard\libg-musl.a(__stderr.o)
 .text.__get_stderr
                0x0000000000000000        0x8 c:/program files/microchip/xc32/v4.60/bin/bin/../../lib/gcc/pic32c/8.3.1/../../../../pic32c/lib/thumb/v7-a+simd/hard\libg-musl.a(__stderr.o)
 .xc_stack_usage.hdr
                0x0000000000000000        0xe c:/program files/microchip/xc32/v4.60/bin/bin/../../lib/gcc/pic32c/8.3.1/../../../../pic32c/lib/thumb/v7-a+simd/hard\libg-musl.a(__stderr.o)
 .text          0x0000000000000000        0x0 c:/program files/microchip/xc32/v4.60/bin/bin/../../lib/gcc/pic32c/8.3.1/../../../../pic32c/lib/thumb/v7-a+simd/hard\libg-musl.a(__stdio_close.o)
 .data          0x0000000000000000        0x0 c:/program files/microchip/xc32/v4.60/bin/bin/../../lib/gcc/pic32c/8.3.1/../../../../pic32c/lib/thumb/v7-a+simd/hard\libg-musl.a(__stdio_close.o)
 .bss           0x0000000000000000        0x0 c:/program files/microchip/xc32/v4.60/bin/bin/../../lib/gcc/pic32c/8.3.1/../../../../pic32c/lib/thumb/v7-a+simd/hard\libg-musl.a(__stdio_close.o)
 .xc_stack_usage
                0x0000000000000000       0x39 c:/program files/microchip/xc32/v4.60/bin/bin/../../lib/gcc/pic32c/8.3.1/../../../../pic32c/lib/thumb/v7-a+simd/hard\libg-musl.a(__stdio_close.o)
 .text.__stdio_close
                0x0000000000000000       0x44 c:/program files/microchip/xc32/v4.60/bin/bin/../../lib/gcc/pic32c/8.3.1/../../../../pic32c/lib/thumb/v7-a+simd/hard\libg-musl.a(__stdio_close.o)
 .xc_stack_usage.hdr
                0x0000000000000000        0xe c:/program files/microchip/xc32/v4.60/bin/bin/../../lib/gcc/pic32c/8.3.1/../../../../pic32c/lib/thumb/v7-a+simd/hard\libg-musl.a(__stdio_close.o)
 .text          0x0000000000000000        0x0 c:/program files/microchip/xc32/v4.60/bin/bin/../../lib/gcc/pic32c/8.3.1/../../../../pic32c/lib/thumb/v7-a+simd/hard\libg-musl.a(__stdio_exit.o)
 .data          0x0000000000000000        0x0 c:/program files/microchip/xc32/v4.60/bin/bin/../../lib/gcc/pic32c/8.3.1/../../../../pic32c/lib/thumb/v7-a+simd/hard\libg-musl.a(__stdio_exit.o)
 .bss           0x0000000000000000        0x4 c:/program files/microchip/xc32/v4.60/bin/bin/../../lib/gcc/pic32c/8.3.1/../../../../pic32c/lib/thumb/v7-a+simd/hard\libg-musl.a(__stdio_exit.o)
 .xc_stack_usage
                0x0000000000000000       0x45 c:/program files/microchip/xc32/v4.60/bin/bin/../../lib/gcc/pic32c/8.3.1/../../../../pic32c/lib/thumb/v7-a+simd/hard\libg-musl.a(__stdio_exit.o)
 .text.__dummy  0x0000000000000000        0x2 c:/program files/microchip/xc32/v4.60/bin/bin/../../lib/gcc/pic32c/8.3.1/../../../../pic32c/lib/thumb/v7-a+simd/hard\libg-musl.a(__stdio_exit.o)
 .text.__dummy1
                0x0000000000000000        0x4 c:/program files/microchip/xc32/v4.60/bin/bin/../../lib/gcc/pic32c/8.3.1/../../../../pic32c/lib/thumb/v7-a+simd/hard\libg-musl.a(__stdio_exit.o)
 .text.__stdio_exit
                0x0000000000000000       0x34 c:/program files/microchip/xc32/v4.60/bin/bin/../../lib/gcc/pic32c/8.3.1/../../../../pic32c/lib/thumb/v7-a+simd/hard\libg-musl.a(__stdio_exit.o)
 .xc_stack_usage.hdr
                0x0000000000000000        0xe c:/program files/microchip/xc32/v4.60/bin/bin/../../lib/gcc/pic32c/8.3.1/../../../../pic32c/lib/thumb/v7-a+simd/hard\libg-musl.a(__stdio_exit.o)
 .debug_info    0x0000000000000000      0x2dd c:/program files/microchip/xc32/v4.60/bin/bin/../../lib/gcc/pic32c/8.3.1/../../../../pic32c/lib/thumb/v7-a+simd/hard\libg-musl.a(__stdio_exit.o)
 .debug_abbrev  0x0000000000000000      0x173 c:/program files/microchip/xc32/v4.60/bin/bin/../../lib/gcc/pic32c/8.3.1/../../../../pic32c/lib/thumb/v7-a+simd/hard\libg-musl.a(__stdio_exit.o)
 .debug_loc     0x0000000000000000       0x45 c:/program files/microchip/xc32/v4.60/bin/bin/../../lib/gcc/pic32c/8.3.1/../../../../pic32c/lib/thumb/v7-a+simd/hard\libg-musl.a(__stdio_exit.o)
 .debug_aranges
                0x0000000000000000       0x30 c:/program files/microchip/xc32/v4.60/bin/bin/../../lib/gcc/pic32c/8.3.1/../../../../pic32c/lib/thumb/v7-a+simd/hard\libg-musl.a(__stdio_exit.o)
 .debug_ranges  0x0000000000000000       0x20 c:/program files/microchip/xc32/v4.60/bin/bin/../../lib/gcc/pic32c/8.3.1/../../../../pic32c/lib/thumb/v7-a+simd/hard\libg-musl.a(__stdio_exit.o)
 .debug_line    0x0000000000000000      0x178 c:/program files/microchip/xc32/v4.60/bin/bin/../../lib/gcc/pic32c/8.3.1/../../../../pic32c/lib/thumb/v7-a+simd/hard\libg-musl.a(__stdio_exit.o)
 .debug_str     0x0000000000000000      0x339 c:/program files/microchip/xc32/v4.60/bin/bin/../../lib/gcc/pic32c/8.3.1/../../../../pic32c/lib/thumb/v7-a+simd/hard\libg-musl.a(__stdio_exit.o)
 .comment       0x0000000000000000       0x2c c:/program files/microchip/xc32/v4.60/bin/bin/../../lib/gcc/pic32c/8.3.1/../../../../pic32c/lib/thumb/v7-a+simd/hard\libg-musl.a(__stdio_exit.o)
 .note.GNU-stack
                0x0000000000000000        0x0 c:/program files/microchip/xc32/v4.60/bin/bin/../../lib/gcc/pic32c/8.3.1/../../../../pic32c/lib/thumb/v7-a+simd/hard\libg-musl.a(__stdio_exit.o)
 .debug_frame   0x0000000000000000       0x48 c:/program files/microchip/xc32/v4.60/bin/bin/../../lib/gcc/pic32c/8.3.1/../../../../pic32c/lib/thumb/v7-a+simd/hard\libg-musl.a(__stdio_exit.o)
 .ARM.attributes
                0x0000000000000000       0x37 c:/program files/microchip/xc32/v4.60/bin/bin/../../lib/gcc/pic32c/8.3.1/../../../../pic32c/lib/thumb/v7-a+simd/hard\libg-musl.a(__stdio_exit.o)
 .text          0x0000000000000000        0x0 c:/program files/microchip/xc32/v4.60/bin/bin/../../lib/gcc/pic32c/8.3.1/../../../../pic32c/lib/thumb/v7-a+simd/hard\libg-musl.a(__stdio_write.o)
 .data          0x0000000000000000        0x0 c:/program files/microchip/xc32/v4.60/bin/bin/../../lib/gcc/pic32c/8.3.1/../../../../pic32c/lib/thumb/v7-a+simd/hard\libg-musl.a(__stdio_write.o)
 .bss           0x0000000000000000        0x0 c:/program files/microchip/xc32/v4.60/bin/bin/../../lib/gcc/pic32c/8.3.1/../../../../pic32c/lib/thumb/v7-a+simd/hard\libg-musl.a(__stdio_write.o)
 .xc_stack_usage
                0x0000000000000000       0x42 c:/program files/microchip/xc32/v4.60/bin/bin/../../lib/gcc/pic32c/8.3.1/../../../../pic32c/lib/thumb/v7-a+simd/hard\libg-musl.a(__stdio_write.o)
 .xc_stack_usage.hdr
                0x0000000000000000        0xe c:/program files/microchip/xc32/v4.60/bin/bin/../../lib/gcc/pic32c/8.3.1/../../../../pic32c/lib/thumb/v7-a+simd/hard\libg-musl.a(__stdio_write.o)
 .text          0x0000000000000000        0x0 c:/program files/microchip/xc32/v4.60/bin/bin/../../lib/gcc/pic32c/8.3.1/../../../../pic32c/lib/thumb/v7-a+simd/hard\libg-musl.a(__stdout.o)
 .bss           0x0000000000000000        0x0 c:/program files/microchip/xc32/v4.60/bin/bin/../../lib/gcc/pic32c/8.3.1/../../../../pic32c/lib/thumb/v7-a+simd/hard\libg-musl.a(__stdout.o)
 .xc_stack_usage
                0x0000000000000000       0x50 c:/program files/microchip/xc32/v4.60/bin/bin/../../lib/gcc/pic32c/8.3.1/../../../../pic32c/lib/thumb/v7-a+simd/hard\libg-musl.a(__stdout.o)
 .text.__dummy  0x0000000000000000        0x2 c:/program files/microchip/xc32/v4.60/bin/bin/../../lib/gcc/pic32c/8.3.1/../../../../pic32c/lib/thumb/v7-a+simd/hard\libg-musl.a(__stdout.o)
 .xc_stack_usage.hdr
                0x0000000000000000        0xe c:/program files/microchip/xc32/v4.60/bin/bin/../../lib/gcc/pic32c/8.3.1/../../../../pic32c/lib/thumb/v7-a+simd/hard\libg-musl.a(__stdout.o)
 .text          0x0000000000000000        0x0 c:/program files/microchip/xc32/v4.60/bin/bin/../../lib/gcc/pic32c/8.3.1/../../../../pic32c/lib/thumb/v7-a+simd/hard\libg-musl.a(__towrite.o)
 .data          0x0000000000000000        0x0 c:/program files/microchip/xc32/v4.60/bin/bin/../../lib/gcc/pic32c/8.3.1/../../../../pic32c/lib/thumb/v7-a+simd/hard\libg-musl.a(__towrite.o)
 .bss           0x0000000000000000        0x0 c:/program files/microchip/xc32/v4.60/bin/bin/../../lib/gcc/pic32c/8.3.1/../../../../pic32c/lib/thumb/v7-a+simd/hard\libg-musl.a(__towrite.o)
 .xc_stack_usage
                0x0000000000000000       0x2c c:/program files/microchip/xc32/v4.60/bin/bin/../../lib/gcc/pic32c/8.3.1/../../../../pic32c/lib/thumb/v7-a+simd/hard\libg-musl.a(__towrite.o)
 .text.__dummy  0x0000000000000000        0x4 c:/program files/microchip/xc32/v4.60/bin/bin/../../lib/gcc/pic32c/8.3.1/../../../../pic32c/lib/thumb/v7-a+simd/hard\libg-musl.a(__towrite.o)
 .xc_stack_usage.hdr
                0x0000000000000000        0xe c:/program files/microchip/xc32/v4.60/bin/bin/../../lib/gcc/pic32c/8.3.1/../../../../pic32c/lib/thumb/v7-a+simd/hard\libg-musl.a(__towrite.o)
 .text          0x0000000000000000        0x0 c:/program files/microchip/xc32/v4.60/bin/bin/../../lib/gcc/pic32c/8.3.1/../../../../pic32c/lib/thumb/v7-a+simd/hard\libg-musl.a(writev.o)
 .data          0x0000000000000000        0x0 c:/program files/microchip/xc32/v4.60/bin/bin/../../lib/gcc/pic32c/8.3.1/../../../../pic32c/lib/thumb/v7-a+simd/hard\libg-musl.a(writev.o)
 .bss           0x0000000000000000        0x0 c:/program files/microchip/xc32/v4.60/bin/bin/../../lib/gcc/pic32c/8.3.1/../../../../pic32c/lib/thumb/v7-a+simd/hard\libg-musl.a(writev.o)
 .xc_stack_usage
                0x0000000000000000       0x16 c:/program files/microchip/xc32/v4.60/bin/bin/../../lib/gcc/pic32c/8.3.1/../../../../pic32c/lib/thumb/v7-a+simd/hard\libg-musl.a(writev.o)
 .xc_stack_usage.hdr
                0x0000000000000000        0xe c:/program files/microchip/xc32/v4.60/bin/bin/../../lib/gcc/pic32c/8.3.1/../../../../pic32c/lib/thumb/v7-a+simd/hard\libg-musl.a(writev.o)
 .text          0x0000000000000000        0x0 c:/program files/microchip/xc32/v4.60/bin/bin/../../lib/gcc/pic32c/8.3.1/../../../../pic32c/lib/thumb/v7-a+simd/hard\libg-musl.a(__overflow.o)
 .data          0x0000000000000000        0x0 c:/program files/microchip/xc32/v4.60/bin/bin/../../lib/gcc/pic32c/8.3.1/../../../../pic32c/lib/thumb/v7-a+simd/hard\libg-musl.a(__overflow.o)
 .bss           0x0000000000000000        0x0 c:/program files/microchip/xc32/v4.60/bin/bin/../../lib/gcc/pic32c/8.3.1/../../../../pic32c/lib/thumb/v7-a+simd/hard\libg-musl.a(__overflow.o)
 .xc_stack_usage
                0x0000000000000000       0x18 c:/program files/microchip/xc32/v4.60/bin/bin/../../lib/gcc/pic32c/8.3.1/../../../../pic32c/lib/thumb/v7-a+simd/hard\libg-musl.a(__overflow.o)
 .xc_stack_usage.hdr
                0x0000000000000000        0xe c:/program files/microchip/xc32/v4.60/bin/bin/../../lib/gcc/pic32c/8.3.1/../../../../pic32c/lib/thumb/v7-a+simd/hard\libg-musl.a(__overflow.o)
 .text          0x0000000000000000        0x0 c:/program files/microchip/xc32/v4.60/bin/bin/../../lib/gcc/pic32c/8.3.1/../../../../pic32c/lib/thumb/v7-a+simd/hard\libg-musl.a(__fclose.o)
 .data          0x0000000000000000        0x0 c:/program files/microchip/xc32/v4.60/bin/bin/../../lib/gcc/pic32c/8.3.1/../../../../pic32c/lib/thumb/v7-a+simd/hard\libg-musl.a(__fclose.o)
 .bss           0x0000000000000000        0x0 c:/program files/microchip/xc32/v4.60/bin/bin/../../lib/gcc/pic32c/8.3.1/../../../../pic32c/lib/thumb/v7-a+simd/hard\libg-musl.a(__fclose.o)
 .xc_stack_usage
                0x0000000000000000       0x16 c:/program files/microchip/xc32/v4.60/bin/bin/../../lib/gcc/pic32c/8.3.1/../../../../pic32c/lib/thumb/v7-a+simd/hard\libg-musl.a(__fclose.o)
 .text.__fclose
                0x0000000000000000        0xc c:/program files/microchip/xc32/v4.60/bin/bin/../../lib/gcc/pic32c/8.3.1/../../../../pic32c/lib/thumb/v7-a+simd/hard\libg-musl.a(__fclose.o)
 .xc_stack_usage.hdr
                0x0000000000000000        0xe c:/program files/microchip/xc32/v4.60/bin/bin/../../lib/gcc/pic32c/8.3.1/../../../../pic32c/lib/thumb/v7-a+simd/hard\libg-musl.a(__fclose.o)
 .debug_info    0x0000000000000000      0x1ba c:/program files/microchip/xc32/v4.60/bin/bin/../../lib/gcc/pic32c/8.3.1/../../../../pic32c/lib/thumb/v7-a+simd/hard\libg-musl.a(__fclose.o)
 .debug_abbrev  0x0000000000000000       0xe0 c:/program files/microchip/xc32/v4.60/bin/bin/../../lib/gcc/pic32c/8.3.1/../../../../pic32c/lib/thumb/v7-a+simd/hard\libg-musl.a(__fclose.o)
 .debug_loc     0x0000000000000000       0x74 c:/program files/microchip/xc32/v4.60/bin/bin/../../lib/gcc/pic32c/8.3.1/../../../../pic32c/lib/thumb/v7-a+simd/hard\libg-musl.a(__fclose.o)
 .debug_aranges
                0x0000000000000000       0x20 c:/program files/microchip/xc32/v4.60/bin/bin/../../lib/gcc/pic32c/8.3.1/../../../../pic32c/lib/thumb/v7-a+simd/hard\libg-musl.a(__fclose.o)
 .debug_ranges  0x0000000000000000       0x10 c:/program files/microchip/xc32/v4.60/bin/bin/../../lib/gcc/pic32c/8.3.1/../../../../pic32c/lib/thumb/v7-a+simd/hard\libg-musl.a(__fclose.o)
 .debug_line    0x0000000000000000      0x14b c:/program files/microchip/xc32/v4.60/bin/bin/../../lib/gcc/pic32c/8.3.1/../../../../pic32c/lib/thumb/v7-a+simd/hard\libg-musl.a(__fclose.o)
 .debug_str     0x0000000000000000      0x2d6 c:/program files/microchip/xc32/v4.60/bin/bin/../../lib/gcc/pic32c/8.3.1/../../../../pic32c/lib/thumb/v7-a+simd/hard\libg-musl.a(__fclose.o)
 .comment       0x0000000000000000       0x2c c:/program files/microchip/xc32/v4.60/bin/bin/../../lib/gcc/pic32c/8.3.1/../../../../pic32c/lib/thumb/v7-a+simd/hard\libg-musl.a(__fclose.o)
 .note.GNU-stack
                0x0000000000000000        0x0 c:/program files/microchip/xc32/v4.60/bin/bin/../../lib/gcc/pic32c/8.3.1/../../../../pic32c/lib/thumb/v7-a+simd/hard\libg-musl.a(__fclose.o)
 .debug_frame   0x0000000000000000       0x20 c:/program files/microchip/xc32/v4.60/bin/bin/../../lib/gcc/pic32c/8.3.1/../../../../pic32c/lib/thumb/v7-a+simd/hard\libg-musl.a(__fclose.o)
 .ARM.attributes
                0x0000000000000000       0x37 c:/program files/microchip/xc32/v4.60/bin/bin/../../lib/gcc/pic32c/8.3.1/../../../../pic32c/lib/thumb/v7-a+simd/hard\libg-musl.a(__fclose.o)
 .text          0x0000000000000000        0x0 c:/program files/microchip/xc32/v4.60/bin/bin/../../lib/gcc/pic32c/8.3.1/../../../../pic32c/lib/thumb/v7-a+simd/hard\libg-musl.a(__fopen.o)
 .data          0x0000000000000000        0x0 c:/program files/microchip/xc32/v4.60/bin/bin/../../lib/gcc/pic32c/8.3.1/../../../../pic32c/lib/thumb/v7-a+simd/hard\libg-musl.a(__fopen.o)
 .bss           0x0000000000000000        0x0 c:/program files/microchip/xc32/v4.60/bin/bin/../../lib/gcc/pic32c/8.3.1/../../../../pic32c/lib/thumb/v7-a+simd/hard\libg-musl.a(__fopen.o)
 .xc_stack_usage
                0x0000000000000000       0x43 c:/program files/microchip/xc32/v4.60/bin/bin/../../lib/gcc/pic32c/8.3.1/../../../../pic32c/lib/thumb/v7-a+simd/hard\libg-musl.a(__fopen.o)
 .text.__dummy  0x0000000000000000        0x4 c:/program files/microchip/xc32/v4.60/bin/bin/../../lib/gcc/pic32c/8.3.1/../../../../pic32c/lib/thumb/v7-a+simd/hard\libg-musl.a(__fopen.o)
 .text.__fopen_std
                0x0000000000000000       0x30 c:/program files/microchip/xc32/v4.60/bin/bin/../../lib/gcc/pic32c/8.3.1/../../../../pic32c/lib/thumb/v7-a+simd/hard\libg-musl.a(__fopen.o)
 .text.__fopen  0x0000000000000000        0x8 c:/program files/microchip/xc32/v4.60/bin/bin/../../lib/gcc/pic32c/8.3.1/../../../../pic32c/lib/thumb/v7-a+simd/hard\libg-musl.a(__fopen.o)
 .xc_stack_usage.hdr
                0x0000000000000000        0xe c:/program files/microchip/xc32/v4.60/bin/bin/../../lib/gcc/pic32c/8.3.1/../../../../pic32c/lib/thumb/v7-a+simd/hard\libg-musl.a(__fopen.o)
 .debug_info    0x0000000000000000      0x2e2 c:/program files/microchip/xc32/v4.60/bin/bin/../../lib/gcc/pic32c/8.3.1/../../../../pic32c/lib/thumb/v7-a+simd/hard\libg-musl.a(__fopen.o)
 .debug_abbrev  0x0000000000000000      0x17c c:/program files/microchip/xc32/v4.60/bin/bin/../../lib/gcc/pic32c/8.3.1/../../../../pic32c/lib/thumb/v7-a+simd/hard\libg-musl.a(__fopen.o)
 .debug_loc     0x0000000000000000       0x94 c:/program files/microchip/xc32/v4.60/bin/bin/../../lib/gcc/pic32c/8.3.1/../../../../pic32c/lib/thumb/v7-a+simd/hard\libg-musl.a(__fopen.o)
 .debug_aranges
                0x0000000000000000       0x30 c:/program files/microchip/xc32/v4.60/bin/bin/../../lib/gcc/pic32c/8.3.1/../../../../pic32c/lib/thumb/v7-a+simd/hard\libg-musl.a(__fopen.o)
 .debug_ranges  0x0000000000000000       0x20 c:/program files/microchip/xc32/v4.60/bin/bin/../../lib/gcc/pic32c/8.3.1/../../../../pic32c/lib/thumb/v7-a+simd/hard\libg-musl.a(__fopen.o)
 .debug_line    0x0000000000000000      0x216 c:/program files/microchip/xc32/v4.60/bin/bin/../../lib/gcc/pic32c/8.3.1/../../../../pic32c/lib/thumb/v7-a+simd/hard\libg-musl.a(__fopen.o)
 .debug_str     0x0000000000000000      0x313 c:/program files/microchip/xc32/v4.60/bin/bin/../../lib/gcc/pic32c/8.3.1/../../../../pic32c/lib/thumb/v7-a+simd/hard\libg-musl.a(__fopen.o)
 .comment       0x0000000000000000       0x2c c:/program files/microchip/xc32/v4.60/bin/bin/../../lib/gcc/pic32c/8.3.1/../../../../pic32c/lib/thumb/v7-a+simd/hard\libg-musl.a(__fopen.o)
 .note.GNU-stack
                0x0000000000000000        0x0 c:/program files/microchip/xc32/v4.60/bin/bin/../../lib/gcc/pic32c/8.3.1/../../../../pic32c/lib/thumb/v7-a+simd/hard\libg-musl.a(__fopen.o)
 .debug_frame   0x0000000000000000       0x50 c:/program files/microchip/xc32/v4.60/bin/bin/../../lib/gcc/pic32c/8.3.1/../../../../pic32c/lib/thumb/v7-a+simd/hard\libg-musl.a(__fopen.o)
 .ARM.attributes
                0x0000000000000000       0x37 c:/program files/microchip/xc32/v4.60/bin/bin/../../lib/gcc/pic32c/8.3.1/../../../../pic32c/lib/thumb/v7-a+simd/hard\libg-musl.a(__fopen.o)
 .text          0x0000000000000000        0x0 c:/program files/microchip/xc32/v4.60/bin/bin/../../lib/gcc/pic32c/8.3.1/../../../../pic32c/lib/thumb/v7-a+simd/hard\libg-musl.a(__fseeko.o)
 .data          0x0000000000000000        0x0 c:/program files/microchip/xc32/v4.60/bin/bin/../../lib/gcc/pic32c/8.3.1/../../../../pic32c/lib/thumb/v7-a+simd/hard\libg-musl.a(__fseeko.o)
 .bss           0x0000000000000000        0x0 c:/program files/microchip/xc32/v4.60/bin/bin/../../lib/gcc/pic32c/8.3.1/../../../../pic32c/lib/thumb/v7-a+simd/hard\libg-musl.a(__fseeko.o)
 .xc_stack_usage
                0x0000000000000000       0x16 c:/program files/microchip/xc32/v4.60/bin/bin/../../lib/gcc/pic32c/8.3.1/../../../../pic32c/lib/thumb/v7-a+simd/hard\libg-musl.a(__fseeko.o)
 .text.__fseeko
                0x0000000000000000        0x4 c:/program files/microchip/xc32/v4.60/bin/bin/../../lib/gcc/pic32c/8.3.1/../../../../pic32c/lib/thumb/v7-a+simd/hard\libg-musl.a(__fseeko.o)
 .xc_stack_usage.hdr
                0x0000000000000000        0xe c:/program files/microchip/xc32/v4.60/bin/bin/../../lib/gcc/pic32c/8.3.1/../../../../pic32c/lib/thumb/v7-a+simd/hard\libg-musl.a(__fseeko.o)
 .debug_info    0x0000000000000000      0x26a c:/program files/microchip/xc32/v4.60/bin/bin/../../lib/gcc/pic32c/8.3.1/../../../../pic32c/lib/thumb/v7-a+simd/hard\libg-musl.a(__fseeko.o)
 .debug_abbrev  0x0000000000000000       0xfb c:/program files/microchip/xc32/v4.60/bin/bin/../../lib/gcc/pic32c/8.3.1/../../../../pic32c/lib/thumb/v7-a+simd/hard\libg-musl.a(__fseeko.o)
 .debug_loc     0x0000000000000000       0x6f c:/program files/microchip/xc32/v4.60/bin/bin/../../lib/gcc/pic32c/8.3.1/../../../../pic32c/lib/thumb/v7-a+simd/hard\libg-musl.a(__fseeko.o)
 .debug_aranges
                0x0000000000000000       0x20 c:/program files/microchip/xc32/v4.60/bin/bin/../../lib/gcc/pic32c/8.3.1/../../../../pic32c/lib/thumb/v7-a+simd/hard\libg-musl.a(__fseeko.o)
 .debug_ranges  0x0000000000000000       0x10 c:/program files/microchip/xc32/v4.60/bin/bin/../../lib/gcc/pic32c/8.3.1/../../../../pic32c/lib/thumb/v7-a+simd/hard\libg-musl.a(__fseeko.o)
 .debug_line    0x0000000000000000      0x13a c:/program files/microchip/xc32/v4.60/bin/bin/../../lib/gcc/pic32c/8.3.1/../../../../pic32c/lib/thumb/v7-a+simd/hard\libg-musl.a(__fseeko.o)
 .debug_str     0x0000000000000000      0x2f3 c:/program files/microchip/xc32/v4.60/bin/bin/../../lib/gcc/pic32c/8.3.1/../../../../pic32c/lib/thumb/v7-a+simd/hard\libg-musl.a(__fseeko.o)
 .comment       0x0000000000000000       0x2c c:/program files/microchip/xc32/v4.60/bin/bin/../../lib/gcc/pic32c/8.3.1/../../../../pic32c/lib/thumb/v7-a+simd/hard\libg-musl.a(__fseeko.o)
 .note.GNU-stack
                0x0000000000000000        0x0 c:/program files/microchip/xc32/v4.60/bin/bin/../../lib/gcc/pic32c/8.3.1/../../../../pic32c/lib/thumb/v7-a+simd/hard\libg-musl.a(__fseeko.o)
 .debug_frame   0x0000000000000000       0x20 c:/program files/microchip/xc32/v4.60/bin/bin/../../lib/gcc/pic32c/8.3.1/../../../../pic32c/lib/thumb/v7-a+simd/hard\libg-musl.a(__fseeko.o)
 .ARM.attributes
                0x0000000000000000       0x37 c:/program files/microchip/xc32/v4.60/bin/bin/../../lib/gcc/pic32c/8.3.1/../../../../pic32c/lib/thumb/v7-a+simd/hard\libg-musl.a(__fseeko.o)
 .text          0x0000000000000000        0x0 c:/program files/microchip/xc32/v4.60/bin/bin/../../lib/gcc/pic32c/8.3.1/../../../../pic32c/lib/thumb/v7-a+simd/hard\libg-musl.a(__ftello.o)
 .data          0x0000000000000000        0x0 c:/program files/microchip/xc32/v4.60/bin/bin/../../lib/gcc/pic32c/8.3.1/../../../../pic32c/lib/thumb/v7-a+simd/hard\libg-musl.a(__ftello.o)
 .bss           0x0000000000000000        0x0 c:/program files/microchip/xc32/v4.60/bin/bin/../../lib/gcc/pic32c/8.3.1/../../../../pic32c/lib/thumb/v7-a+simd/hard\libg-musl.a(__ftello.o)
 .xc_stack_usage
                0x0000000000000000       0x2f c:/program files/microchip/xc32/v4.60/bin/bin/../../lib/gcc/pic32c/8.3.1/../../../../pic32c/lib/thumb/v7-a+simd/hard\libg-musl.a(__ftello.o)
 .text.__dummy  0x0000000000000000       0x1c c:/program files/microchip/xc32/v4.60/bin/bin/../../lib/gcc/pic32c/8.3.1/../../../../pic32c/lib/thumb/v7-a+simd/hard\libg-musl.a(__ftello.o)
 .text.__ftello_adj
                0x0000000000000000        0x8 c:/program files/microchip/xc32/v4.60/bin/bin/../../lib/gcc/pic32c/8.3.1/../../../../pic32c/lib/thumb/v7-a+simd/hard\libg-musl.a(__ftello.o)
 .xc_stack_usage.hdr
                0x0000000000000000        0xe c:/program files/microchip/xc32/v4.60/bin/bin/../../lib/gcc/pic32c/8.3.1/../../../../pic32c/lib/thumb/v7-a+simd/hard\libg-musl.a(__ftello.o)
 .debug_info    0x0000000000000000      0x294 c:/program files/microchip/xc32/v4.60/bin/bin/../../lib/gcc/pic32c/8.3.1/../../../../pic32c/lib/thumb/v7-a+simd/hard\libg-musl.a(__ftello.o)
 .debug_abbrev  0x0000000000000000      0x111 c:/program files/microchip/xc32/v4.60/bin/bin/../../lib/gcc/pic32c/8.3.1/../../../../pic32c/lib/thumb/v7-a+simd/hard\libg-musl.a(__ftello.o)
 .debug_loc     0x0000000000000000       0xaf c:/program files/microchip/xc32/v4.60/bin/bin/../../lib/gcc/pic32c/8.3.1/../../../../pic32c/lib/thumb/v7-a+simd/hard\libg-musl.a(__ftello.o)
 .debug_aranges
                0x0000000000000000       0x28 c:/program files/microchip/xc32/v4.60/bin/bin/../../lib/gcc/pic32c/8.3.1/../../../../pic32c/lib/thumb/v7-a+simd/hard\libg-musl.a(__ftello.o)
 .debug_ranges  0x0000000000000000       0x18 c:/program files/microchip/xc32/v4.60/bin/bin/../../lib/gcc/pic32c/8.3.1/../../../../pic32c/lib/thumb/v7-a+simd/hard\libg-musl.a(__ftello.o)
 .debug_line    0x0000000000000000      0x171 c:/program files/microchip/xc32/v4.60/bin/bin/../../lib/gcc/pic32c/8.3.1/../../../../pic32c/lib/thumb/v7-a+simd/hard\libg-musl.a(__ftello.o)
 .debug_str     0x0000000000000000      0x2f8 c:/program files/microchip/xc32/v4.60/bin/bin/../../lib/gcc/pic32c/8.3.1/../../../../pic32c/lib/thumb/v7-a+simd/hard\libg-musl.a(__ftello.o)
 .comment       0x0000000000000000       0x2c c:/program files/microchip/xc32/v4.60/bin/bin/../../lib/gcc/pic32c/8.3.1/../../../../pic32c/lib/thumb/v7-a+simd/hard\libg-musl.a(__ftello.o)
 .note.GNU-stack
                0x0000000000000000        0x0 c:/program files/microchip/xc32/v4.60/bin/bin/../../lib/gcc/pic32c/8.3.1/../../../../pic32c/lib/thumb/v7-a+simd/hard\libg-musl.a(__ftello.o)
 .debug_frame   0x0000000000000000       0x40 c:/program files/microchip/xc32/v4.60/bin/bin/../../lib/gcc/pic32c/8.3.1/../../../../pic32c/lib/thumb/v7-a+simd/hard\libg-musl.a(__ftello.o)
 .ARM.attributes
                0x0000000000000000       0x37 c:/program files/microchip/xc32/v4.60/bin/bin/../../lib/gcc/pic32c/8.3.1/../../../../pic32c/lib/thumb/v7-a+simd/hard\libg-musl.a(__ftello.o)
 .text          0x0000000000000000        0x0 c:/program files/microchip/xc32/v4.60/bin/bin/../../lib/gcc/pic32c/8.3.1/../../../../pic32c/lib/thumb/v7-a+simd/hard\libg-musl.a(__fwrite.o)
 .data          0x0000000000000000        0x0 c:/program files/microchip/xc32/v4.60/bin/bin/../../lib/gcc/pic32c/8.3.1/../../../../pic32c/lib/thumb/v7-a+simd/hard\libg-musl.a(__fwrite.o)
 .bss           0x0000000000000000        0x0 c:/program files/microchip/xc32/v4.60/bin/bin/../../lib/gcc/pic32c/8.3.1/../../../../pic32c/lib/thumb/v7-a+simd/hard\libg-musl.a(__fwrite.o)
 .xc_stack_usage
                0x0000000000000000       0x36 c:/program files/microchip/xc32/v4.60/bin/bin/../../lib/gcc/pic32c/8.3.1/../../../../pic32c/lib/thumb/v7-a+simd/hard\libg-musl.a(__fwrite.o)
 .xc_stack_usage.hdr
                0x0000000000000000        0xe c:/program files/microchip/xc32/v4.60/bin/bin/../../lib/gcc/pic32c/8.3.1/../../../../pic32c/lib/thumb/v7-a+simd/hard\libg-musl.a(__fwrite.o)
 .text          0x0000000000000000        0x0 c:/program files/microchip/xc32/v4.60/bin/bin/../../lib/gcc/pic32c/8.3.1/../../../../pic32c/lib/thumb/v7-a+simd/hard\libpic32c.a(close.o)
 .data          0x0000000000000000        0x0 c:/program files/microchip/xc32/v4.60/bin/bin/../../lib/gcc/pic32c/8.3.1/../../../../pic32c/lib/thumb/v7-a+simd/hard\libpic32c.a(close.o)
 .bss           0x0000000000000000        0x0 c:/program files/microchip/xc32/v4.60/bin/bin/../../lib/gcc/pic32c/8.3.1/../../../../pic32c/lib/thumb/v7-a+simd/hard\libpic32c.a(close.o)
 .xc_stack_usage
                0x0000000000000000       0x13 c:/program files/microchip/xc32/v4.60/bin/bin/../../lib/gcc/pic32c/8.3.1/../../../../pic32c/lib/thumb/v7-a+simd/hard\libpic32c.a(close.o)
 .gnu.warning.closestub
                0x0000000000000000        0x0 c:/program files/microchip/xc32/v4.60/bin/bin/../../lib/gcc/pic32c/8.3.1/../../../../pic32c/lib/thumb/v7-a+simd/hard\libpic32c.a(close.o)
 .xc_stack_usage.hdr
                0x0000000000000000        0xe c:/program files/microchip/xc32/v4.60/bin/bin/../../lib/gcc/pic32c/8.3.1/../../../../pic32c/lib/thumb/v7-a+simd/hard\libpic32c.a(close.o)
 .text          0x0000000000000000        0x0 c:/program files/microchip/xc32/v4.60/bin/bin/../../lib/gcc/pic32c/8.3.1/../../../../pic32c/lib/thumb/v7-a+simd/hard\libpic32c.a(lseek.o)
 .data          0x0000000000000000        0x0 c:/program files/microchip/xc32/v4.60/bin/bin/../../lib/gcc/pic32c/8.3.1/../../../../pic32c/lib/thumb/v7-a+simd/hard\libpic32c.a(lseek.o)
 .bss           0x0000000000000000        0x0 c:/program files/microchip/xc32/v4.60/bin/bin/../../lib/gcc/pic32c/8.3.1/../../../../pic32c/lib/thumb/v7-a+simd/hard\libpic32c.a(lseek.o)
 .xc_stack_usage
                0x0000000000000000       0x13 c:/program files/microchip/xc32/v4.60/bin/bin/../../lib/gcc/pic32c/8.3.1/../../../../pic32c/lib/thumb/v7-a+simd/hard\libpic32c.a(lseek.o)
 .xc_stack_usage.hdr
                0x0000000000000000        0xe c:/program files/microchip/xc32/v4.60/bin/bin/../../lib/gcc/pic32c/8.3.1/../../../../pic32c/lib/thumb/v7-a+simd/hard\libpic32c.a(lseek.o)
 .text          0x0000000000000000        0x0 c:/program files/microchip/xc32/v4.60/bin/bin/../../lib/gcc/pic32c/8.3.1/../../../../pic32c/lib/thumb/v7-a+simd/hard\libpic32c.a(sbrk.o)
 .data          0x0000000000000000        0x0 c:/program files/microchip/xc32/v4.60/bin/bin/../../lib/gcc/pic32c/8.3.1/../../../../pic32c/lib/thumb/v7-a+simd/hard\libpic32c.a(sbrk.o)
 .xc_stack_usage
                0x0000000000000000       0x4d c:/program files/microchip/xc32/v4.60/bin/bin/../../lib/gcc/pic32c/8.3.1/../../../../pic32c/lib/thumb/v7-a+simd/hard\libpic32c.a(sbrk.o)
 .xc_stack_usage.hdr
                0x0000000000000000        0xe c:/program files/microchip/xc32/v4.60/bin/bin/../../lib/gcc/pic32c/8.3.1/../../../../pic32c/lib/thumb/v7-a+simd/hard\libpic32c.a(sbrk.o)
 .text          0x0000000000000000        0x0 c:/program files/microchip/xc32/v4.60/bin/bin/../../lib/gcc/pic32c/8.3.1/thumb/v7-a+simd/hard/crtend.o
 .data          0x0000000000000000        0x0 c:/program files/microchip/xc32/v4.60/bin/bin/../../lib/gcc/pic32c/8.3.1/thumb/v7-a+simd/hard/crtend.o
 .bss           0x0000000000000000        0x0 c:/program files/microchip/xc32/v4.60/bin/bin/../../lib/gcc/pic32c/8.3.1/thumb/v7-a+simd/hard/crtend.o
 .eh_frame      0x0000000000000000        0x4 c:/program files/microchip/xc32/v4.60/bin/bin/../../lib/gcc/pic32c/8.3.1/thumb/v7-a+simd/hard/crtend.o
 .xc_stack_usage.hdr
                0x0000000000000000        0xe c:/program files/microchip/xc32/v4.60/bin/bin/../../lib/gcc/pic32c/8.3.1/thumb/v7-a+simd/hard/crtend.o
 .comment       0x0000000000000000       0x2c c:/program files/microchip/xc32/v4.60/bin/bin/../../lib/gcc/pic32c/8.3.1/thumb/v7-a+simd/hard/crtend.o
 .ARM.attributes
                0x0000000000000000       0x31 c:/program files/microchip/xc32/v4.60/bin/bin/../../lib/gcc/pic32c/8.3.1/thumb/v7-a+simd/hard/crtend.o
 .text          0x0000000000000000        0x0 c:/program files/microchip/xc32/v4.60/bin/bin/../../lib/gcc/pic32c/8.3.1/thumb/v7-a+simd/hard/crtn.o
 .data          0x0000000000000000        0x0 c:/program files/microchip/xc32/v4.60/bin/bin/../../lib/gcc/pic32c/8.3.1/thumb/v7-a+simd/hard/crtn.o
 .bss           0x0000000000000000        0x0 c:/program files/microchip/xc32/v4.60/bin/bin/../../lib/gcc/pic32c/8.3.1/thumb/v7-a+simd/hard/crtn.o
 .xc_stack_usage.hdr
                0x0000000000000000        0xe c:/program files/microchip/xc32/v4.60/bin/bin/../../lib/gcc/pic32c/8.3.1/thumb/v7-a+simd/hard/crtn.o

Memory Configuration

Name             Origin             Length             Attributes
sram             0x0000000000200000 0x0000000000020000 !xrw
ram              0x0000000021000000 0x0000000007000000 xrw
ram_nocache      0x0000000020000000 0x0000000001000000 !xrw
rom              0x0000000000000000 0x0000000000000000 xrl
*default*        0x0000000000000000 0xffffffffffffffff

Linker script and memory map

LOAD c:/program files/microchip/xc32/v4.60/bin/bin/../../lib/gcc/pic32c/8.3.1/thumb/v7-a+simd/hard/crti.o
LOAD c:/program files/microchip/xc32/v4.60/bin/bin/../../lib/gcc/pic32c/8.3.1/thumb/v7-a+simd/hard/crtbegin.o
LOAD build/default/debug/_ext/1881668453/sys_int.o
LOAD build/default/debug/_ext/1014039709/sys_cache.o
LOAD build/default/debug/_ext/1434821282/bsp.o
LOAD build/default/debug/_ext/1171490990/cstartup.o
LOAD build/default/debug/_ext/1535495969/drv_usb_ohci.o
LOAD build/default/debug/_ext/1171490990/initialization.o
LOAD build/default/debug/_ext/1171490990/tasks.o
LOAD build/default/debug/_ext/60163497/plib_aic.o
LOAD build/default/debug/_ext/1666157715/plib_matrix.o
LOAD build/default/debug/_ext/829342655/plib_tc0.o
LOAD build/default/debug/_ext/308758920/usb_host.o
LOAD build/default/debug/_ext/1360937237/app.o
LOAD build/default/debug/_ext/1269487135/sys_fs_fat_interface.o
LOAD build/default/debug/_ext/411819097/ff.o
LOAD build/default/debug/_ext/1360937237/main.o
LOAD build/default/debug/_ext/308758920/usb_host_scsi.o
LOAD build/default/debug/_ext/308758920/usb_host_msd.o
LOAD build/default/debug/_ext/1535495969/drv_usb_ehci.o
LOAD build/default/debug/_ext/1171490990/usb_host_init_data.o
LOAD build/default/debug/_ext/1171490990/fault_handlers.o
LOAD build/default/debug/_ext/60177924/plib_pio.o
LOAD build/default/debug/_ext/1269487135/sys_fs_media_manager.o
LOAD build/default/debug/_ext/1171490990/interrupts.o
LOAD build/default/debug/_ext/1269487135/sys_fs.o
LOAD build/default/debug/_ext/163028504/xc32_monitor.o
LOAD build/default/debug/_ext/411819097/ffunicode.o
LOAD build/default/debug/_ext/60165520/plib_clk.o
LOAD build/default/debug/_ext/60175171/plib_mmu.o
LOAD build/default/debug/_ext/101884895/sys_time.o
LOAD build/default/debug/_ext/565198302/diskio.o
LOAD build/default/debug/_ext/1865657120/plib_uart1.o
                0x0000000000000001                __MPLAB_BUILD = 0x1
                0x0000000000001000                C_STACK_SIZE = 0x1000
                0x0000000000000060                IRQ_STACK_SIZE = 0x60
                0x0000000000000060                FIQ_STACK_SIZE = 0x60
                0x0000000000001000                SVC_STACK_SIZE = 0x1000
                0x0000000000000040                ABT_STACK_SIZE = 0x40
                0x0000000000000040                UND_STACK_SIZE = 0x40

.text           0x0000000023f00000    0x2c048
                0x0000000023f00000                . = ALIGN (0x4)
                0x0000000023f00000                _sfixed = .
 *(.textEntry)
 .textEntry     0x0000000023f00000      0x13c build/default/debug/_ext/1171490990/cstartup.o
                0x0000000023f00000                entry
 *(.text .text.* .gnu.linkonce.t.*)
 .text          0x0000000023f0013c       0x40 c:/program files/microchip/xc32/v4.60/bin/bin/../../lib/gcc/pic32c/8.3.1/thumb/v7-a+simd/hard/crtbegin.o
 .text.laicInstanceGet
                0x0000000023f0017c       0x2c build/default/debug/_ext/1881668453/sys_int.o
 .text.SYS_INT_Enable
                0x0000000023f001a8       0x14 build/default/debug/_ext/1881668453/sys_int.o
                0x0000000023f001a8                SYS_INT_Enable
 .text.SYS_INT_Disable
                0x0000000023f001bc       0x18 build/default/debug/_ext/1881668453/sys_int.o
                0x0000000023f001bc                SYS_INT_Disable
 .text.SYS_INT_Restore
                0x0000000023f001d4       0x2c build/default/debug/_ext/1881668453/sys_int.o
                0x0000000023f001d4                SYS_INT_Restore
 .text.SYS_INT_SourceIsEnabled
                0x0000000023f00200       0x80 build/default/debug/_ext/1881668453/sys_int.o
                0x0000000023f00200                SYS_INT_SourceIsEnabled
 .text.SYS_INT_SourceEnable
                0x0000000023f00280       0x64 build/default/debug/_ext/1881668453/sys_int.o
                0x0000000023f00280                SYS_INT_SourceEnable
 .text.SYS_INT_SourceDisable
                0x0000000023f002e4       0x84 build/default/debug/_ext/1881668453/sys_int.o
                0x0000000023f002e4                SYS_INT_SourceDisable
 .text.SYS_INT_SourceRestore
                0x0000000023f00368       0x80 build/default/debug/_ext/1881668453/sys_int.o
                0x0000000023f00368                SYS_INT_SourceRestore
 .text.SYS_INT_SourceStatusClear
                0x0000000023f003e8       0x64 build/default/debug/_ext/1881668453/sys_int.o
                0x0000000023f003e8                SYS_INT_SourceStatusClear
 .text.BSP_Initialize
                0x0000000023f0044c       0x58 build/default/debug/_ext/1434821282/bsp.o
                0x0000000023f0044c                BSP_Initialize
 *fill*         0x0000000023f004a4        0xc 
 .text          0x0000000023f004b0       0xbc build/default/debug/_ext/1171490990/cstartup.o
 .text.F_DRV_USB_OHCI_PeriodicListRemove
                0x0000000023f0056c       0xf4 build/default/debug/_ext/1535495969/drv_usb_ohci.o
                0x0000000023f0056c                F_DRV_USB_OHCI_PeriodicListRemove
 .text.F_DRV_USB_OHCI_GetPollingIndex
                0x0000000023f00660       0x6c build/default/debug/_ext/1535495969/drv_usb_ohci.o
                0x0000000023f00660                F_DRV_USB_OHCI_GetPollingIndex
 .text.F_DRV_USB_OHCI_GetUniqueKey
                0x0000000023f006cc       0x74 build/default/debug/_ext/1535495969/drv_usb_ohci.o
                0x0000000023f006cc                F_DRV_USB_OHCI_GetUniqueKey
 .text.F_DRV_USB_OHCI_PipeCloseTask
                0x0000000023f00740      0x59c build/default/debug/_ext/1535495969/drv_usb_ohci.o
                0x0000000023f00740                F_DRV_USB_OHCI_PipeCloseTask
 .text.F_DRV_USB_OHCI_PortsTask
                0x0000000023f00cdc      0x360 build/default/debug/_ext/1535495969/drv_usb_ohci.o
                0x0000000023f00cdc                F_DRV_USB_OHCI_PortsTask
 .text.F_DRV_USB_OHCI_DataTransferTD
                0x0000000023f0103c      0x124 build/default/debug/_ext/1535495969/drv_usb_ohci.o
                0x0000000023f0103c                F_DRV_USB_OHCI_DataTransferTD
 .text.F_DRV_USB_OHCI_ControlTransferTD
                0x0000000023f01160      0x330 build/default/debug/_ext/1535495969/drv_usb_ohci.o
                0x0000000023f01160                F_DRV_USB_OHCI_ControlTransferTD
 .text.F_DRV_USB_OHCI_DataTransferProcess
                0x0000000023f01490      0x440 build/default/debug/_ext/1535495969/drv_usb_ohci.o
                0x0000000023f01490                F_DRV_USB_OHCI_DataTransferProcess
 .text.F_DRV_USB_OHCI_ControlTransferProcess
                0x0000000023f018d0      0x40c build/default/debug/_ext/1535495969/drv_usb_ohci.o
                0x0000000023f018d0                F_DRV_USB_OHCI_ControlTransferProcess
 .text.DRV_USB_OHCI_Initialize
                0x0000000023f01cdc      0x2c8 build/default/debug/_ext/1535495969/drv_usb_ohci.o
                0x0000000023f01cdc                DRV_USB_OHCI_Initialize
 .text.DRV_USB_OHCI_Open
                0x0000000023f01fa4      0x144 build/default/debug/_ext/1535495969/drv_usb_ohci.o
                0x0000000023f01fa4                DRV_USB_OHCI_Open
 .text.DRV_USB_OHCI_Close
                0x0000000023f020e8       0x90 build/default/debug/_ext/1535495969/drv_usb_ohci.o
                0x0000000023f020e8                DRV_USB_OHCI_Close
 .text.DRV_USB_OHCI_Tasks
                0x0000000023f02178       0x84 build/default/debug/_ext/1535495969/drv_usb_ohci.o
                0x0000000023f02178                DRV_USB_OHCI_Tasks
 .text.DRV_USB_OHCI_IRPSubmit
                0x0000000023f021fc      0x674 build/default/debug/_ext/1535495969/drv_usb_ohci.o
                0x0000000023f021fc                DRV_USB_OHCI_IRPSubmit
 .text.DRV_USB_OHCI_IRPCancel
                0x0000000023f02870      0x360 build/default/debug/_ext/1535495969/drv_usb_ohci.o
                0x0000000023f02870                DRV_USB_OHCI_IRPCancel
 .text.DRV_USB_OHCI_PipeClose
                0x0000000023f02bd0      0x248 build/default/debug/_ext/1535495969/drv_usb_ohci.o
                0x0000000023f02bd0                DRV_USB_OHCI_PipeClose
 .text.DRV_USB_OHCI_PipeSetup
                0x0000000023f02e18      0xe70 build/default/debug/_ext/1535495969/drv_usb_ohci.o
                0x0000000023f02e18                DRV_USB_OHCI_PipeSetup
 .text.DRV_USB_OHCI_EventsDisable
                0x0000000023f03c88       0xa4 build/default/debug/_ext/1535495969/drv_usb_ohci.o
                0x0000000023f03c88                DRV_USB_OHCI_EventsDisable
 .text.DRV_USB_OHCI_EventsEnable
                0x0000000023f03d2c       0xa4 build/default/debug/_ext/1535495969/drv_usb_ohci.o
                0x0000000023f03d2c                DRV_USB_OHCI_EventsEnable
 .text.DRV_USB_OHCI_OperationEnable
                0x0000000023f03dd0      0x42c build/default/debug/_ext/1535495969/drv_usb_ohci.o
                0x0000000023f03dd0                DRV_USB_OHCI_OperationEnable
 .text.DRV_USB_OHCI_OperationIsEnabled
                0x0000000023f041fc      0x19c build/default/debug/_ext/1535495969/drv_usb_ohci.o
                0x0000000023f041fc                DRV_USB_OHCI_OperationIsEnabled
 .text.DRV_USB_OHCI_PortReset
                0x0000000023f04398      0x170 build/default/debug/_ext/1535495969/drv_usb_ohci.o
                0x0000000023f04398                DRV_USB_OHCI_PortReset
 .text.DRV_USB_OHCI_PortSpeedGet
                0x0000000023f04508      0x130 build/default/debug/_ext/1535495969/drv_usb_ohci.o
                0x0000000023f04508                DRV_USB_OHCI_PortSpeedGet
 .text.DRV_USB_OHCI_PortResetIsComplete
                0x0000000023f04638       0xf0 build/default/debug/_ext/1535495969/drv_usb_ohci.o
                0x0000000023f04638                DRV_USB_OHCI_PortResetIsComplete
 .text.DRV_USB_OHCI_PortSuspend
                0x0000000023f04728       0x2c build/default/debug/_ext/1535495969/drv_usb_ohci.o
                0x0000000023f04728                DRV_USB_OHCI_PortSuspend
 .text.DRV_USB_OHCI_PortResume
                0x0000000023f04754       0x2c build/default/debug/_ext/1535495969/drv_usb_ohci.o
                0x0000000023f04754                DRV_USB_OHCI_PortResume
 .text.DRV_USB_OHCI_BusSpeedGet
                0x0000000023f04780       0x80 build/default/debug/_ext/1535495969/drv_usb_ohci.o
                0x0000000023f04780                DRV_USB_OHCI_BusSpeedGet
 .text.DRV_USB_OHCI_MaximumCurrentGet
                0x0000000023f04800       0x9c build/default/debug/_ext/1535495969/drv_usb_ohci.o
                0x0000000023f04800                DRV_USB_OHCI_MaximumCurrentGet
 .text.DRV_USB_OHCI_PortNumbersGet
                0x0000000023f0489c       0xa0 build/default/debug/_ext/1535495969/drv_usb_ohci.o
                0x0000000023f0489c                DRV_USB_OHCI_PortNumbersGet
 .text.DRV_USB_OHCI_RootHubInitialize
                0x0000000023f0493c       0x94 build/default/debug/_ext/1535495969/drv_usb_ohci.o
                0x0000000023f0493c                DRV_USB_OHCI_RootHubInitialize
 .text.DRV_USB_OHCI_EndpointToggleClear
                0x0000000023f049d0       0xe4 build/default/debug/_ext/1535495969/drv_usb_ohci.o
                0x0000000023f049d0                DRV_USB_OHCI_EndpointToggleClear
 .text.DRV_USB_OHCI_IsCompanionControllerReady
                0x0000000023f04ab4       0xa8 build/default/debug/_ext/1535495969/drv_usb_ohci.o
                0x0000000023f04ab4                DRV_USB_OHCI_IsCompanionControllerReady
 .text.DRV_USB_OHCI_Tasks_ISR
                0x0000000023f04b5c      0x4bc build/default/debug/_ext/1535495969/drv_usb_ohci.o
                0x0000000023f04b5c                DRV_USB_OHCI_Tasks_ISR
 .text.DRV_USB_VBUSPowerEnable
                0x0000000023f05018       0x60 build/default/debug/_ext/1171490990/initialization.o
 .text.STDIO_BufferModeSet
                0x0000000023f05078       0x48 build/default/debug/_ext/1171490990/initialization.o
 .text.SYS_Initialize
                0x0000000023f050c0       0xdc build/default/debug/_ext/1171490990/initialization.o
                0x0000000023f050c0                SYS_Initialize
 .text.SYS_Tasks
                0x0000000023f0519c       0x54 build/default/debug/_ext/1171490990/tasks.o
                0x0000000023f0519c                SYS_Tasks
 .text.AIC_INT_Initialize
                0x0000000023f051f0      0x21c build/default/debug/_ext/60163497/plib_aic.o
                0x0000000023f051f0                AIC_INT_Initialize
 .text.AIC_INT_IrqEnable
                0x0000000023f0540c       0x20 build/default/debug/_ext/60163497/plib_aic.o
                0x0000000023f0540c                AIC_INT_IrqEnable
 .text.AIC_INT_IrqDisable
                0x0000000023f0542c       0x50 build/default/debug/_ext/60163497/plib_aic.o
                0x0000000023f0542c                AIC_INT_IrqDisable
 .text.AIC_INT_IrqRestore
                0x0000000023f0547c       0x44 build/default/debug/_ext/60163497/plib_aic.o
                0x0000000023f0547c                AIC_INT_IrqRestore
 .text.Matrix_Initialize
                0x0000000023f054c0       0xac build/default/debug/_ext/1666157715/plib_matrix.o
                0x0000000023f054c0                Matrix_Initialize
 .text.TC0_CH0_TimerInitialize
                0x0000000023f0556c       0x68 build/default/debug/_ext/829342655/plib_tc0.o
                0x0000000023f0556c                TC0_CH0_TimerInitialize
 .text.TC0_CH0_TimerStart
                0x0000000023f055d4       0x28 build/default/debug/_ext/829342655/plib_tc0.o
                0x0000000023f055d4                TC0_CH0_TimerStart
 .text.TC0_CH0_TimerStop
                0x0000000023f055fc       0x28 build/default/debug/_ext/829342655/plib_tc0.o
                0x0000000023f055fc                TC0_CH0_TimerStop
 .text.TC0_CH0_TimerFrequencyGet
                0x0000000023f05624       0x20 build/default/debug/_ext/829342655/plib_tc0.o
                0x0000000023f05624                TC0_CH0_TimerFrequencyGet
 .text.TC0_CH0_TimerPeriodSet
                0x0000000023f05644       0x30 build/default/debug/_ext/829342655/plib_tc0.o
                0x0000000023f05644                TC0_CH0_TimerPeriodSet
 .text.TC0_CH0_TimerCompareSet
                0x0000000023f05674       0x30 build/default/debug/_ext/829342655/plib_tc0.o
                0x0000000023f05674                TC0_CH0_TimerCompareSet
 .text.TC0_CH0_TimerCounterGet
                0x0000000023f056a4       0x24 build/default/debug/_ext/829342655/plib_tc0.o
                0x0000000023f056a4                TC0_CH0_TimerCounterGet
 .text.TC0_CH0_TimerCallbackRegister
                0x0000000023f056c8       0x44 build/default/debug/_ext/829342655/plib_tc0.o
                0x0000000023f056c8                TC0_CH0_TimerCallbackRegister
 .text.TC0_CH0_InterruptHandler
                0x0000000023f0570c       0x74 build/default/debug/_ext/829342655/plib_tc0.o
 .text.TC0_InterruptHandler
                0x0000000023f05780       0x14 build/default/debug/_ext/829342655/plib_tc0.o
                0x0000000023f05780                TC0_InterruptHandler
 .text.F_USB_HOST_TimerCallback
                0x0000000023f05794       0x4c build/default/debug/_ext/308758920/usb_host.o
                0x0000000023f05794                F_USB_HOST_TimerCallback
 .text.F_USB_HOST_FindEndOfDescriptor
                0x0000000023f057e0       0xb4 build/default/debug/_ext/308758920/usb_host.o
                0x0000000023f057e0                F_USB_HOST_FindEndOfDescriptor
 .text.F_USB_HOST_RootHubEventDisable
                0x0000000023f05894       0x84 build/default/debug/_ext/308758920/usb_host.o
                0x0000000023f05894                F_USB_HOST_RootHubEventDisable
 .text.F_USB_HOST_RootHubEventEnable
                0x0000000023f05918       0x7c build/default/debug/_ext/308758920/usb_host.o
                0x0000000023f05918                F_USB_HOST_RootHubEventEnable
 .text.F_USB_HOST_NoInterfacesOwned
                0x0000000023f05994       0xc0 build/default/debug/_ext/308758920/usb_host.o
                0x0000000023f05994                F_USB_HOST_NoInterfacesOwned
 .text.F_USB_HOST_UpdateInterfaceStatus
                0x0000000023f05a54      0x56c build/default/debug/_ext/308758920/usb_host.o
                0x0000000023f05a54                F_USB_HOST_UpdateInterfaceStatus
 .text.F_USB_HOST_ReleaseInterfaceDrivers
                0x0000000023f05fc0       0xb8 build/default/debug/_ext/308758920/usb_host.o
                0x0000000023f05fc0                F_USB_HOST_ReleaseInterfaceDrivers
 .text.F_USB_HOST_ConfigurationDescriptorParse
                0x0000000023f06078      0x264 build/default/debug/_ext/308758920/usb_host.o
                0x0000000023f06078                F_USB_HOST_ConfigurationDescriptorParse
 .text.F_USB_HOST_FindClassSubClassProtocolDriver
                0x0000000023f062dc      0x1b0 build/default/debug/_ext/308758920/usb_host.o
                0x0000000023f062dc                F_USB_HOST_FindClassSubClassProtocolDriver
 .text.F_USB_HOST_UpdateConfigurationState
                0x0000000023f0648c      0x8a4 build/default/debug/_ext/308758920/usb_host.o
                0x0000000023f0648c                F_USB_HOST_UpdateConfigurationState
 .text.F_USB_HOST_UpdateDeviceOwnership
                0x0000000023f06d30      0x428 build/default/debug/_ext/308758920/usb_host.o
                0x0000000023f06d30                F_USB_HOST_UpdateDeviceOwnership
 .text.USB_HOST_DeviceControlTransfer
                0x0000000023f07158      0x284 build/default/debug/_ext/308758920/usb_host.o
                0x0000000023f07158                USB_HOST_DeviceControlTransfer
 .text.F_USB_HOST_DeviceConfigurationDescriptorErrorCheck
                0x0000000023f073dc      0x30c build/default/debug/_ext/308758920/usb_host.o
                0x0000000023f073dc                F_USB_HOST_DeviceConfigurationDescriptorErrorCheck
 .text.F_USB_HOST_GetNewAddress
                0x0000000023f076e8       0xd0 build/default/debug/_ext/308758920/usb_host.o
                0x0000000023f076e8                F_USB_HOST_GetNewAddress
 .text.F_USB_HOST_FillSetupPacket
                0x0000000023f077b8       0x80 build/default/debug/_ext/308758920/usb_host.o
                0x0000000023f077b8                F_USB_HOST_FillSetupPacket
 .text.F_USB_HOST_MakeDeviceReady
                0x0000000023f07838     0x1230 build/default/debug/_ext/308758920/usb_host.o
                0x0000000023f07838                F_USB_HOST_MakeDeviceReady
 .text.F_USB_HOST_UpdateDeviceTask
                0x0000000023f08a68       0xa4 build/default/debug/_ext/308758920/usb_host.o
                0x0000000023f08a68                F_USB_HOST_UpdateDeviceTask
 .text.F_USB_HOST_FreeAddress
                0x0000000023f08b0c       0xd8 build/default/debug/_ext/308758920/usb_host.o
                0x0000000023f08b0c                F_USB_HOST_FreeAddress
 .text.F_USB_HOST_IRPResultToHostResult
                0x0000000023f08be4       0x88 build/default/debug/_ext/308758920/usb_host.o
                0x0000000023f08be4                F_USB_HOST_IRPResultToHostResult
 .text.F_USB_HOST_DataTransferIRPCallback
                0x0000000023f08c6c       0xc0 build/default/debug/_ext/308758920/usb_host.o
                0x0000000023f08c6c                F_USB_HOST_DataTransferIRPCallback
 .text.F_USB_HOST_DeviceControlTransferCallback
                0x0000000023f08d2c      0x310 build/default/debug/_ext/308758920/usb_host.o
                0x0000000023f08d2c                F_USB_HOST_DeviceControlTransferCallback
 .text.USB_HOST_Initialize
                0x0000000023f0903c      0x280 build/default/debug/_ext/308758920/usb_host.o
                0x0000000023f0903c                USB_HOST_Initialize
 .text.USB_HOST_EventHandlerSet
                0x0000000023f092bc       0x48 build/default/debug/_ext/308758920/usb_host.o
                0x0000000023f092bc                USB_HOST_EventHandlerSet
 .text.USB_HOST_BusEnable
                0x0000000023f09304       0xfc build/default/debug/_ext/308758920/usb_host.o
                0x0000000023f09304                USB_HOST_BusEnable
 .text.USB_HOST_BusIsEnabled
                0x0000000023f09400       0xe8 build/default/debug/_ext/308758920/usb_host.o
                0x0000000023f09400                USB_HOST_BusIsEnabled
 .text.USB_HOST_DeviceEnumerate
                0x0000000023f094e8      0x36c build/default/debug/_ext/308758920/usb_host.o
                0x0000000023f094e8                USB_HOST_DeviceEnumerate
 .text.USB_HOST_DeviceDenumerate
                0x0000000023f09854      0x218 build/default/debug/_ext/308758920/usb_host.o
                0x0000000023f09854                USB_HOST_DeviceDenumerate
 .text.USB_HOST_Tasks
                0x0000000023f09a6c      0x388 build/default/debug/_ext/308758920/usb_host.o
                0x0000000023f09a6c                USB_HOST_Tasks
 .text.USB_HOST_DeviceEndpointDescriptorQuery
                0x0000000023f09df4      0x2a8 build/default/debug/_ext/308758920/usb_host.o
                0x0000000023f09df4                USB_HOST_DeviceEndpointDescriptorQuery
 .text.USB_HOST_DeviceInterfaceDescriptorQuery
                0x0000000023f0a09c      0x2e8 build/default/debug/_ext/308758920/usb_host.o
                0x0000000023f0a09c                USB_HOST_DeviceInterfaceDescriptorQuery
 .text.USB_HOST_DeviceEndpointQueryContextClear
                0x0000000023f0a384       0x38 build/default/debug/_ext/308758920/usb_host.o
                0x0000000023f0a384                USB_HOST_DeviceEndpointQueryContextClear
 .text.USB_HOST_DeviceInterfaceQueryContextClear
                0x0000000023f0a3bc       0x38 build/default/debug/_ext/308758920/usb_host.o
                0x0000000023f0a3bc                USB_HOST_DeviceInterfaceQueryContextClear
 .text.USB_HOST_DeviceControlPipeOpen
                0x0000000023f0a3f4       0x90 build/default/debug/_ext/308758920/usb_host.o
                0x0000000023f0a3f4                USB_HOST_DeviceControlPipeOpen
 .text.USB_HOST_DeviceInterfaceRelease
                0x0000000023f0a484       0xfc build/default/debug/_ext/308758920/usb_host.o
                0x0000000023f0a484                USB_HOST_DeviceInterfaceRelease
 .text.USB_HOST_DeviceTransfer
                0x0000000023f0a580      0x310 build/default/debug/_ext/308758920/usb_host.o
                0x0000000023f0a580                USB_HOST_DeviceTransfer
 .text.USB_HOST_DevicePipeOpen
                0x0000000023f0a890      0x324 build/default/debug/_ext/308758920/usb_host.o
                0x0000000023f0a890                USB_HOST_DevicePipeOpen
 .text.USB_HOST_DevicePipeClose
                0x0000000023f0abb4       0xe4 build/default/debug/_ext/308758920/usb_host.o
                0x0000000023f0abb4                USB_HOST_DevicePipeClose
 .text.USB_HOST_DevicePipeHaltClear
                0x0000000023f0ac98      0x2f0 build/default/debug/_ext/308758920/usb_host.o
                0x0000000023f0ac98                USB_HOST_DevicePipeHaltClear
 .text.USB_HOST_DeviceIADQuery
                0x0000000023f0af88       0xec build/default/debug/_ext/308758920/usb_host.o
                0x0000000023f0af88                USB_HOST_DeviceIADQuery
 .text.USB_HOST_DeviceIADQueryContextClear
                0x0000000023f0b074       0x38 build/default/debug/_ext/308758920/usb_host.o
                0x0000000023f0b074                USB_HOST_DeviceIADQueryContextClear
 .text.USB_HOST_DeviceGeneralInterfaceDescriptorQuery
                0x0000000023f0b0ac      0x2c4 build/default/debug/_ext/308758920/usb_host.o
                0x0000000023f0b0ac                USB_HOST_DeviceGeneralInterfaceDescriptorQuery
 .text._readBMP
                0x0000000023f0b370      0x380 build/default/debug/_ext/1360937237/app.o
                0x0000000023f0b370                _readBMP
 .text.APP_Initialize
                0x0000000023f0b6f0       0x38 build/default/debug/_ext/1360937237/app.o
                0x0000000023f0b6f0                APP_Initialize
 .text.APP_USBHostEventHandler
                0x0000000023f0b728       0x3c build/default/debug/_ext/1360937237/app.o
                0x0000000023f0b728                APP_USBHostEventHandler
 .text.APP_SYSFSEventHandler
                0x0000000023f0b764       0x7c build/default/debug/_ext/1360937237/app.o
                0x0000000023f0b764                APP_SYSFSEventHandler
 .text.APP_Tasks
                0x0000000023f0b7e0      0x490 build/default/debug/_ext/1360937237/app.o
                0x0000000023f0b7e0                APP_Tasks
 .text.FATFS_mount
                0x0000000023f0bc70      0x1e4 build/default/debug/_ext/1269487135/sys_fs_fat_interface.o
                0x0000000023f0bc70                FATFS_mount
 .text.FATFS_unmount
                0x0000000023f0be54      0x2a8 build/default/debug/_ext/1269487135/sys_fs_fat_interface.o
                0x0000000023f0be54                FATFS_unmount
 .text.FATFS_open
                0x0000000023f0c0fc      0x1cc build/default/debug/_ext/1269487135/sys_fs_fat_interface.o
                0x0000000023f0c0fc                FATFS_open
 .text.FATFS_read
                0x0000000023f0c2c8       0x64 build/default/debug/_ext/1269487135/sys_fs_fat_interface.o
                0x0000000023f0c2c8                FATFS_read
 .text.FATFS_close
                0x0000000023f0c32c       0x7c build/default/debug/_ext/1269487135/sys_fs_fat_interface.o
                0x0000000023f0c32c                FATFS_close
 .text.FATFS_lseek
                0x0000000023f0c3a8       0x4c build/default/debug/_ext/1269487135/sys_fs_fat_interface.o
                0x0000000023f0c3a8                FATFS_lseek
 .text.FATFS_stat
                0x0000000023f0c3f4       0x80 build/default/debug/_ext/1269487135/sys_fs_fat_interface.o
                0x0000000023f0c3f4                FATFS_stat
 .text.FATFS_getlabel
                0x0000000023f0c474       0x40 build/default/debug/_ext/1269487135/sys_fs_fat_interface.o
                0x0000000023f0c474                FATFS_getlabel
 .text.FATFS_getcwd
                0x0000000023f0c4b4       0x38 build/default/debug/_ext/1269487135/sys_fs_fat_interface.o
                0x0000000023f0c4b4                FATFS_getcwd
 .text.FATFS_gets
                0x0000000023f0c4ec       0x4c build/default/debug/_ext/1269487135/sys_fs_fat_interface.o
                0x0000000023f0c4ec                FATFS_gets
 .text.FATFS_opendir
                0x0000000023f0c538      0x13c build/default/debug/_ext/1269487135/sys_fs_fat_interface.o
                0x0000000023f0c538                FATFS_opendir
 .text.FATFS_readdir
                0x0000000023f0c674       0x94 build/default/debug/_ext/1269487135/sys_fs_fat_interface.o
                0x0000000023f0c674                FATFS_readdir
 .text.FATFS_closedir
                0x0000000023f0c708       0x7c build/default/debug/_ext/1269487135/sys_fs_fat_interface.o
                0x0000000023f0c708                FATFS_closedir
 .text.FATFS_chdir
                0x0000000023f0c784       0x30 build/default/debug/_ext/1269487135/sys_fs_fat_interface.o
                0x0000000023f0c784                FATFS_chdir
 .text.FATFS_chdrive
                0x0000000023f0c7b4       0x58 build/default/debug/_ext/1269487135/sys_fs_fat_interface.o
                0x0000000023f0c7b4                FATFS_chdrive
 .text.FATFS_write
                0x0000000023f0c80c       0x64 build/default/debug/_ext/1269487135/sys_fs_fat_interface.o
                0x0000000023f0c80c                FATFS_write
 .text.FATFS_tell
                0x0000000023f0c870       0x40 build/default/debug/_ext/1269487135/sys_fs_fat_interface.o
                0x0000000023f0c870                FATFS_tell
 .text.FATFS_eof
                0x0000000023f0c8b0       0x58 build/default/debug/_ext/1269487135/sys_fs_fat_interface.o
                0x0000000023f0c8b0                FATFS_eof
 .text.FATFS_size
                0x0000000023f0c908       0x40 build/default/debug/_ext/1269487135/sys_fs_fat_interface.o
                0x0000000023f0c908                FATFS_size
 .text.FATFS_mkdir
                0x0000000023f0c948       0x30 build/default/debug/_ext/1269487135/sys_fs_fat_interface.o
                0x0000000023f0c948                FATFS_mkdir
 .text.FATFS_unlink
                0x0000000023f0c978       0x30 build/default/debug/_ext/1269487135/sys_fs_fat_interface.o
                0x0000000023f0c978                FATFS_unlink
 .text.FATFS_setlabel
                0x0000000023f0c9a8       0x30 build/default/debug/_ext/1269487135/sys_fs_fat_interface.o
                0x0000000023f0c9a8                FATFS_setlabel
 .text.FATFS_truncate
                0x0000000023f0c9d8       0x44 build/default/debug/_ext/1269487135/sys_fs_fat_interface.o
                0x0000000023f0c9d8                FATFS_truncate
 .text.FATFS_chmod
                0x0000000023f0ca1c       0x4c build/default/debug/_ext/1269487135/sys_fs_fat_interface.o
                0x0000000023f0ca1c                FATFS_chmod
 .text.FATFS_utime
                0x0000000023f0ca68       0x40 build/default/debug/_ext/1269487135/sys_fs_fat_interface.o
                0x0000000023f0ca68                FATFS_utime
 .text.FATFS_rename
                0x0000000023f0caa8       0x38 build/default/debug/_ext/1269487135/sys_fs_fat_interface.o
                0x0000000023f0caa8                FATFS_rename
 .text.FATFS_sync
                0x0000000023f0cae0       0x4c build/default/debug/_ext/1269487135/sys_fs_fat_interface.o
                0x0000000023f0cae0                FATFS_sync
 .text.FATFS_putc
                0x0000000023f0cb2c       0x4c build/default/debug/_ext/1269487135/sys_fs_fat_interface.o
                0x0000000023f0cb2c                FATFS_putc
 .text.FATFS_puts
                0x0000000023f0cb78       0x44 build/default/debug/_ext/1269487135/sys_fs_fat_interface.o
                0x0000000023f0cb78                FATFS_puts
 .text.FATFS_printf
                0x0000000023f0cbbc       0x4c build/default/debug/_ext/1269487135/sys_fs_fat_interface.o
                0x0000000023f0cbbc                FATFS_printf
 .text.FATFS_error
                0x0000000023f0cc08       0x4c build/default/debug/_ext/1269487135/sys_fs_fat_interface.o
                0x0000000023f0cc08                FATFS_error
 .text.FATFS_mkfs
                0x0000000023f0cc54       0x80 build/default/debug/_ext/1269487135/sys_fs_fat_interface.o
                0x0000000023f0cc54                FATFS_mkfs
 .text.FATFS_fdisk
                0x0000000023f0ccd4       0x48 build/default/debug/_ext/1269487135/sys_fs_fat_interface.o
                0x0000000023f0ccd4                FATFS_fdisk
 .text.FATFS_getclusters
                0x0000000023f0cd1c       0xc4 build/default/debug/_ext/1269487135/sys_fs_fat_interface.o
                0x0000000023f0cd1c                FATFS_getclusters
 .text.ld_word  0x0000000023f0cde0       0x58 build/default/debug/_ext/411819097/ff.o
 .text.ld_dword
                0x0000000023f0ce38       0x84 build/default/debug/_ext/411819097/ff.o
 .text.ld_qword
                0x0000000023f0cebc      0x1c4 build/default/debug/_ext/411819097/ff.o
 .text.st_word  0x0000000023f0d080       0x64 build/default/debug/_ext/411819097/ff.o
 .text.st_dword
                0x0000000023f0d0e4       0xa8 build/default/debug/_ext/411819097/ff.o
 .text.st_qword
                0x0000000023f0d18c      0x150 build/default/debug/_ext/411819097/ff.o
 .text.dbc_1st  0x0000000023f0d2dc       0x3c build/default/debug/_ext/411819097/ff.o
 .text.dbc_2nd  0x0000000023f0d318       0x3c build/default/debug/_ext/411819097/ff.o
 .text.tchar2uni
                0x0000000023f0d354       0xf8 build/default/debug/_ext/411819097/ff.o
 .text.put_utf  0x0000000023f0d44c       0xd4 build/default/debug/_ext/411819097/ff.o
 .text.chk_share
                0x0000000023f0d520      0x150 build/default/debug/_ext/411819097/ff.o
 .text.enq_share
                0x0000000023f0d670       0x6c build/default/debug/_ext/411819097/ff.o
 .text.inc_share
                0x0000000023f0d6dc      0x214 build/default/debug/_ext/411819097/ff.o
 .text.dec_share
                0x0000000023f0d8f0       0xd4 build/default/debug/_ext/411819097/ff.o
 .text.clear_share
                0x0000000023f0d9c4       0x74 build/default/debug/_ext/411819097/ff.o
 .text.sync_window
                0x0000000023f0da38       0xf0 build/default/debug/_ext/411819097/ff.o
 .text.move_window
                0x0000000023f0db28       0xa4 build/default/debug/_ext/411819097/ff.o
 .text.sync_fs  0x0000000023f0dbcc      0x174 build/default/debug/_ext/411819097/ff.o
 .text.clst2sect
                0x0000000023f0dd40       0x9c build/default/debug/_ext/411819097/ff.o
 .text.get_fat  0x0000000023f0dddc      0x434 build/default/debug/_ext/411819097/ff.o
 .text.put_fat  0x0000000023f0e210      0x378 build/default/debug/_ext/411819097/ff.o
 .text.find_bitmap
                0x0000000023f0e588      0x1c0 build/default/debug/_ext/411819097/ff.o
 .text.change_bitmap
                0x0000000023f0e748      0x19c build/default/debug/_ext/411819097/ff.o
 .text.fill_first_frag
                0x0000000023f0e8e4       0xb4 build/default/debug/_ext/411819097/ff.o
 .text.fill_last_frag
                0x0000000023f0e998       0xbc build/default/debug/_ext/411819097/ff.o
 .text.remove_chain
                0x0000000023f0ea54      0x360 build/default/debug/_ext/411819097/ff.o
 .text.create_chain
                0x0000000023f0edb4      0x4a4 build/default/debug/_ext/411819097/ff.o
 .text.dir_clear
                0x0000000023f0f258      0x104 build/default/debug/_ext/411819097/ff.o
 .text.dir_sdi  0x0000000023f0f35c      0x20c build/default/debug/_ext/411819097/ff.o
 .text.dir_next
                0x0000000023f0f568      0x268 build/default/debug/_ext/411819097/ff.o
 .text.dir_alloc
                0x0000000023f0f7d0      0x158 build/default/debug/_ext/411819097/ff.o
 .text.ld_clust
                0x0000000023f0f928       0x70 build/default/debug/_ext/411819097/ff.o
 .text.st_clust
                0x0000000023f0f998       0x70 build/default/debug/_ext/411819097/ff.o
 .text.cmp_lfn  0x0000000023f0fa08      0x188 build/default/debug/_ext/411819097/ff.o
 .text.pick_lfn
                0x0000000023f0fb90      0x170 build/default/debug/_ext/411819097/ff.o
 .text.put_lfn  0x0000000023f0fd00      0x170 build/default/debug/_ext/411819097/ff.o
 .text.gen_numname
                0x0000000023f0fe70      0x250 build/default/debug/_ext/411819097/ff.o
 .text.sum_sfn  0x0000000023f100c0       0x7c build/default/debug/_ext/411819097/ff.o
 .text.xdir_sum
                0x0000000023f1013c       0xc4 build/default/debug/_ext/411819097/ff.o
 .text.xname_sum
                0x0000000023f10200       0xc8 build/default/debug/_ext/411819097/ff.o
 .text.xsum32   0x0000000023f102c8       0x40 build/default/debug/_ext/411819097/ff.o
 .text.load_xdir
                0x0000000023f10308      0x2cc build/default/debug/_ext/411819097/ff.o
 .text.init_alloc_info
                0x0000000023f105d4       0x90 build/default/debug/_ext/411819097/ff.o
 .text.load_obj_xdir
                0x0000000023f10664       0xd4 build/default/debug/_ext/411819097/ff.o
 .text.store_xdir
                0x0000000023f10738      0x14c build/default/debug/_ext/411819097/ff.o
 .text.create_xdir
                0x0000000023f10884      0x188 build/default/debug/_ext/411819097/ff.o
 .text.dir_read
                0x0000000023f10a0c      0x2f8 build/default/debug/_ext/411819097/ff.o
 .text.dir_find
                0x0000000023f10d04      0x42c build/default/debug/_ext/411819097/ff.o
 .text.dir_register
                0x0000000023f11130      0x540 build/default/debug/_ext/411819097/ff.o
 .text.dir_remove
                0x0000000023f11670      0x144 build/default/debug/_ext/411819097/ff.o
 .text.get_fileinfo
                0x0000000023f117b4      0x6a0 build/default/debug/_ext/411819097/ff.o
 .text.create_name
                0x0000000023f11e54      0x744 build/default/debug/_ext/411819097/ff.o
 .text.follow_path
                0x0000000023f12598      0x338 build/default/debug/_ext/411819097/ff.o
 .text.get_ldnumber
                0x0000000023f128d0      0x110 build/default/debug/_ext/411819097/ff.o
 .text.crc32    0x0000000023f129e0       0xb4 build/default/debug/_ext/411819097/ff.o
 .text.test_gpt_header
                0x0000000023f12a94      0x158 build/default/debug/_ext/411819097/ff.o
 .text.make_rand
                0x0000000023f12bec       0xc0 build/default/debug/_ext/411819097/ff.o
 .text.check_fs
                0x0000000023f12cac      0x280 build/default/debug/_ext/411819097/ff.o
 .text.find_volume
                0x0000000023f12f2c      0x33c build/default/debug/_ext/411819097/ff.o
 .text.mount_volume
                0x0000000023f13268      0xc20 build/default/debug/_ext/411819097/ff.o
 .text.validate
                0x0000000023f13e88       0xc8 build/default/debug/_ext/411819097/ff.o
 .text.f_mount  0x0000000023f13f50      0x114 build/default/debug/_ext/411819097/ff.o
                0x0000000023f13f50                f_mount
 .text.f_open   0x0000000023f14064      0x784 build/default/debug/_ext/411819097/ff.o
                0x0000000023f14064                f_open
 .text.f_read   0x0000000023f147e8      0x4cc build/default/debug/_ext/411819097/ff.o
                0x0000000023f147e8                f_read
 .text.f_write  0x0000000023f14cb4      0x5a4 build/default/debug/_ext/411819097/ff.o
                0x0000000023f14cb4                f_write
 .text.f_sync   0x0000000023f15258      0x368 build/default/debug/_ext/411819097/ff.o
                0x0000000023f15258                f_sync
 .text.f_close  0x0000000023f155c0       0x94 build/default/debug/_ext/411819097/ff.o
                0x0000000023f155c0                f_close
 .text.f_chdrive
                0x0000000023f15654       0x58 build/default/debug/_ext/411819097/ff.o
                0x0000000023f15654                f_chdrive
 .text.f_chdir  0x0000000023f156ac      0x188 build/default/debug/_ext/411819097/ff.o
                0x0000000023f156ac                f_chdir
 .text.f_getcwd
                0x0000000023f15834      0x344 build/default/debug/_ext/411819097/ff.o
                0x0000000023f15834                f_getcwd
 .text.f_lseek  0x0000000023f15b78      0x5d0 build/default/debug/_ext/411819097/ff.o
                0x0000000023f15b78                f_lseek
 .text.f_opendir
                0x0000000023f16148      0x20c build/default/debug/_ext/411819097/ff.o
                0x0000000023f16148                f_opendir
 .text.f_closedir
                0x0000000023f16354       0x88 build/default/debug/_ext/411819097/ff.o
                0x0000000023f16354                f_closedir
 .text.f_readdir
                0x0000000023f163dc       0xd8 build/default/debug/_ext/411819097/ff.o
                0x0000000023f163dc                f_readdir
 .text.f_stat   0x0000000023f164b4       0xac build/default/debug/_ext/411819097/ff.o
                0x0000000023f164b4                f_stat
 .text.f_getfree
                0x0000000023f16560      0x398 build/default/debug/_ext/411819097/ff.o
                0x0000000023f16560                f_getfree
 .text.f_truncate
                0x0000000023f168f8      0x224 build/default/debug/_ext/411819097/ff.o
                0x0000000023f168f8                f_truncate
 .text.f_unlink
                0x0000000023f16b1c      0x290 build/default/debug/_ext/411819097/ff.o
                0x0000000023f16b1c                f_unlink
 .text.f_mkdir  0x0000000023f16dac      0x378 build/default/debug/_ext/411819097/ff.o
                0x0000000023f16dac                f_mkdir
 .text.f_rename
                0x0000000023f17124      0x508 build/default/debug/_ext/411819097/ff.o
                0x0000000023f17124                f_rename
 .text.f_chmod  0x0000000023f1762c      0x19c build/default/debug/_ext/411819097/ff.o
                0x0000000023f1762c                f_chmod
 .text.f_utime  0x0000000023f177c8      0x148 build/default/debug/_ext/411819097/ff.o
                0x0000000023f177c8                f_utime
 .text.f_getlabel
                0x0000000023f17910      0x348 build/default/debug/_ext/411819097/ff.o
                0x0000000023f17910                f_getlabel
 .text.f_setlabel
                0x0000000023f17c58      0x4ec build/default/debug/_ext/411819097/ff.o
                0x0000000023f17c58                f_setlabel
 .text.create_partition
                0x0000000023f18144      0xbdc build/default/debug/_ext/411819097/ff.o
 .text.f_mkfs   0x0000000023f18d20     0x228c build/default/debug/_ext/411819097/ff.o
                0x0000000023f18d20                f_mkfs
 .text.f_fdisk  0x0000000023f1afac       0xa8 build/default/debug/_ext/411819097/ff.o
                0x0000000023f1afac                f_fdisk
 .text.f_gets   0x0000000023f1b054       0xe0 build/default/debug/_ext/411819097/ff.o
                0x0000000023f1b054                f_gets
 .text.putc_bfd
                0x0000000023f1b134       0xcc build/default/debug/_ext/411819097/ff.o
 .text.putc_flush
                0x0000000023f1b200       0x80 build/default/debug/_ext/411819097/ff.o
 .text.putc_init
                0x0000000023f1b280       0x3c build/default/debug/_ext/411819097/ff.o
 .text.f_putc   0x0000000023f1b2bc       0x58 build/default/debug/_ext/411819097/ff.o
                0x0000000023f1b2bc                f_putc
 .text.f_puts   0x0000000023f1b314       0x74 build/default/debug/_ext/411819097/ff.o
                0x0000000023f1b314                f_puts
 .text.f_printf
                0x0000000023f1b388      0x6dc build/default/debug/_ext/411819097/ff.o
                0x0000000023f1b388                f_printf
 .text.main     0x0000000023f1ba64       0x30 build/default/debug/_ext/1360937237/main.o
                0x0000000023f1ba64                main
 .text.F_USB_HOST_SCSI_TimerCallback
                0x0000000023f1ba94       0x4c build/default/debug/_ext/308758920/usb_host_scsi.o
                0x0000000023f1ba94                F_USB_HOST_SCSI_TimerCallback
 .text.F_USB_HOST_SCSI_Transfer
                0x0000000023f1bae0      0x2b8 build/default/debug/_ext/308758920/usb_host_scsi.o
                0x0000000023f1bae0                F_USB_HOST_SCSI_Transfer
 .text.F_USB_HOST_SCSI_CommandCallback
                0x0000000023f1bd98       0x68 build/default/debug/_ext/308758920/usb_host_scsi.o
                0x0000000023f1bd98                F_USB_HOST_SCSI_CommandCallback
 .text.F_USB_HOST_SCSI_BlockTransferCallback
                0x0000000023f1be00       0xf0 build/default/debug/_ext/308758920/usb_host_scsi.o
                0x0000000023f1be00                F_USB_HOST_SCSI_BlockTransferCallback
 .text.F_USB_HOST_SCSI_TestUnitReadyCommand
                0x0000000023f1bef0       0x7c build/default/debug/_ext/308758920/usb_host_scsi.o
                0x0000000023f1bef0                F_USB_HOST_SCSI_TestUnitReadyCommand
 .text.F_USB_HOST_SCSI_RequestSenseCommand
                0x0000000023f1bf6c       0x7c build/default/debug/_ext/308758920/usb_host_scsi.o
                0x0000000023f1bf6c                F_USB_HOST_SCSI_RequestSenseCommand
 .text.F_USB_HOST_SCSI_ReadCapacityCommand
                0x0000000023f1bfe8       0xbc build/default/debug/_ext/308758920/usb_host_scsi.o
                0x0000000023f1bfe8                F_USB_HOST_SCSI_ReadCapacityCommand
 .text.F_USB_HOST_SCSI_InquiryResponseCommand
                0x0000000023f1c0a4       0x7c build/default/debug/_ext/308758920/usb_host_scsi.o
                0x0000000023f1c0a4                F_USB_HOST_SCSI_InquiryResponseCommand
 .text.F_USB_HOST_SCSI_ModeSense
                0x0000000023f1c120       0x8c build/default/debug/_ext/308758920/usb_host_scsi.o
                0x0000000023f1c120                F_USB_HOST_SCSI_ModeSense
 .text.F_USB_HOST_SCSI_LUNHandleToSCSIInstance
                0x0000000023f1c1ac       0xac build/default/debug/_ext/308758920/usb_host_scsi.o
                0x0000000023f1c1ac                F_USB_HOST_SCSI_LUNHandleToSCSIInstance
 .text.USB_HOST_SCSI_Initialize
                0x0000000023f1c258       0xf0 build/default/debug/_ext/308758920/usb_host_scsi.o
                0x0000000023f1c258                USB_HOST_SCSI_Initialize
 .text.USB_HOST_SCSI_Deinitialize
                0x0000000023f1c348      0x104 build/default/debug/_ext/308758920/usb_host_scsi.o
                0x0000000023f1c348                USB_HOST_SCSI_Deinitialize
 .text.F_USB_HOST_SCSI_TasksByIndex
                0x0000000023f1c44c      0x98c build/default/debug/_ext/308758920/usb_host_scsi.o
                0x0000000023f1c44c                F_USB_HOST_SCSI_TasksByIndex
 .text.USB_HOST_SCSI_Tasks
                0x0000000023f1cdd8       0x3c build/default/debug/_ext/308758920/usb_host_scsi.o
                0x0000000023f1cdd8                USB_HOST_SCSI_Tasks
 .text.USB_HOST_SCSI_Open
                0x0000000023f1ce14       0x9c build/default/debug/_ext/308758920/usb_host_scsi.o
                0x0000000023f1ce14                USB_HOST_SCSI_Open
 .text.USB_HOST_SCSI_Close
                0x0000000023f1ceb0       0x20 build/default/debug/_ext/308758920/usb_host_scsi.o
                0x0000000023f1ceb0                USB_HOST_SCSI_Close
 .text.USB_HOST_SCSI_MediaStatusGet
                0x0000000023f1ced0       0x84 build/default/debug/_ext/308758920/usb_host_scsi.o
                0x0000000023f1ced0                USB_HOST_SCSI_MediaStatusGet
 .text.USB_HOST_SCSI_SectorRead
                0x0000000023f1cf54       0x4c build/default/debug/_ext/308758920/usb_host_scsi.o
                0x0000000023f1cf54                USB_HOST_SCSI_SectorRead
 .text.USB_HOST_SCSI_SectorWrite
                0x0000000023f1cfa0       0x4c build/default/debug/_ext/308758920/usb_host_scsi.o
                0x0000000023f1cfa0                USB_HOST_SCSI_SectorWrite
 .text.USB_HOST_SCSI_EventHandlerSet
                0x0000000023f1cfec       0x70 build/default/debug/_ext/308758920/usb_host_scsi.o
                0x0000000023f1cfec                USB_HOST_SCSI_EventHandlerSet
 .text.USB_HOST_SCSI_MediaGeometryGet
                0x0000000023f1d05c       0x78 build/default/debug/_ext/308758920/usb_host_scsi.o
                0x0000000023f1d05c                USB_HOST_SCSI_MediaGeometryGet
 .text.F_USB_HOST_SCSI_DetachDetectTasks
                0x0000000023f1d0d4      0x2a4 build/default/debug/_ext/308758920/usb_host_scsi.o
                0x0000000023f1d0d4                F_USB_HOST_SCSI_DetachDetectTasks
 .text.USB_HOST_SCSI_TransferTasks
                0x0000000023f1d378      0x4cc build/default/debug/_ext/308758920/usb_host_scsi.o
                0x0000000023f1d378                USB_HOST_SCSI_TransferTasks
 .text.F_USB_HOST_MSD_TransferTasks
                0x0000000023f1d844      0x4a4 build/default/debug/_ext/308758920/usb_host_msd.o
                0x0000000023f1d844                F_USB_HOST_MSD_TransferTasks
 .text.F_USB_HOST_MSD_HostResultToMSDResultMap
                0x0000000023f1dce8       0xb0 build/default/debug/_ext/308758920/usb_host_msd.o
                0x0000000023f1dce8                F_USB_HOST_MSD_HostResultToMSDResultMap
 .text.F_USB_HOST_MSD_InterfaceHandleToMSDInstance
                0x0000000023f1dd98       0xac build/default/debug/_ext/308758920/usb_host_msd.o
                0x0000000023f1dd98                F_USB_HOST_MSD_InterfaceHandleToMSDInstance
 .text.F_USB_HOST_MSD_InstanceRelease
                0x0000000023f1de44      0x104 build/default/debug/_ext/308758920/usb_host_msd.o
                0x0000000023f1de44                F_USB_HOST_MSD_InstanceRelease
 .text.USB_HOST_MSD_TransferErrorTasks
                0x0000000023f1df48      0x51c build/default/debug/_ext/308758920/usb_host_msd.o
                0x0000000023f1df48                USB_HOST_MSD_TransferErrorTasks
 .text.F_USB_HOST_MSD_ControlTransferCallback
                0x0000000023f1e464       0x5c build/default/debug/_ext/308758920/usb_host_msd.o
                0x0000000023f1e464                F_USB_HOST_MSD_ControlTransferCallback
 .text.F_USB_HOST_MSD_GetMaxLUNPacketCreate
                0x0000000023f1e4c0       0x7c build/default/debug/_ext/308758920/usb_host_msd.o
                0x0000000023f1e4c0                F_USB_HOST_MSD_GetMaxLUNPacketCreate
 .text.F_USB_HOST_MSD_ResetPacketCreate
                0x0000000023f1e53c       0x78 build/default/debug/_ext/308758920/usb_host_msd.o
                0x0000000023f1e53c                F_USB_HOST_MSD_ResetPacketCreate
 .text.F_USB_HOST_MSD_Initialize
                0x0000000023f1e5b4       0xe0 build/default/debug/_ext/308758920/usb_host_msd.o
                0x0000000023f1e5b4                F_USB_HOST_MSD_Initialize
 .text.F_USB_HOST_MSD_Deinitialize
                0x0000000023f1e694       0x18 build/default/debug/_ext/308758920/usb_host_msd.o
                0x0000000023f1e694                F_USB_HOST_MSD_Deinitialize
 .text.F_USB_HOST_MSD_Reinitialize
                0x0000000023f1e6ac       0x20 build/default/debug/_ext/308758920/usb_host_msd.o
                0x0000000023f1e6ac                F_USB_HOST_MSD_Reinitialize
 .text.F_USB_HOST_MSD_InterfaceAssign
                0x0000000023f1e6cc      0x2c4 build/default/debug/_ext/308758920/usb_host_msd.o
                0x0000000023f1e6cc                F_USB_HOST_MSD_InterfaceAssign
 .text.F_USB_HOST_MSD_InterfaceRelease
                0x0000000023f1e990       0x24 build/default/debug/_ext/308758920/usb_host_msd.o
                0x0000000023f1e990                F_USB_HOST_MSD_InterfaceRelease
 .text.F_USB_HOST_MSD_InterfaceEventHandler
                0x0000000023f1e9b4       0xac build/default/debug/_ext/308758920/usb_host_msd.o
                0x0000000023f1e9b4                F_USB_HOST_MSD_InterfaceEventHandler
 .text.F_USB_HOST_MSD_InterfaceTasks
                0x0000000023f1ea60      0x288 build/default/debug/_ext/308758920/usb_host_msd.o
                0x0000000023f1ea60                F_USB_HOST_MSD_InterfaceTasks
 .text.USB_HOST_MSD_Transfer
                0x0000000023f1ece8      0x3dc build/default/debug/_ext/308758920/usb_host_msd.o
                0x0000000023f1ece8                USB_HOST_MSD_Transfer
 .text.F_DRV_USB_EHCI_GetUniqueKey
                0x0000000023f1f0c4       0x74 build/default/debug/_ext/1535495969/drv_usb_ehci.o
                0x0000000023f1f0c4                F_DRV_USB_EHCI_GetUniqueKey
 .text.F_DRV_USB_EHCI_QTDBufferPointerSetup
                0x0000000023f1f138      0x10c build/default/debug/_ext/1535495969/drv_usb_ehci.o
                0x0000000023f1f138                F_DRV_USB_EHCI_QTDBufferPointerSetup
 .text.F_DRV_USB_EHCI_ControlTransferQTD
                0x0000000023f1f244      0x3b0 build/default/debug/_ext/1535495969/drv_usb_ehci.o
                0x0000000023f1f244                F_DRV_USB_EHCI_ControlTransferQTD
 .text.F_DRV_USB_EHCI_PortsTask
                0x0000000023f1f5f4      0x554 build/default/debug/_ext/1535495969/drv_usb_ehci.o
                0x0000000023f1f5f4                F_DRV_USB_EHCI_PortsTask
 .text.F_DRV_USB_EHCI_CheckQHForError
                0x0000000023f1fb48       0x9c build/default/debug/_ext/1535495969/drv_usb_ehci.o
                0x0000000023f1fb48                F_DRV_USB_EHCI_CheckQHForError
 .text.F_DRV_USB_EHCI_CheckQTDForError
                0x0000000023f1fbe4       0x9c build/default/debug/_ext/1535495969/drv_usb_ehci.o
                0x0000000023f1fbe4                F_DRV_USB_EHCI_CheckQTDForError
 .text.F_DRV_USB_EHCI_DataQTD
                0x0000000023f1fc80      0x1b8 build/default/debug/_ext/1535495969/drv_usb_ehci.o
                0x0000000023f1fc80                F_DRV_USB_EHCI_DataQTD
 .text.F_DRV_USB_EHCI_BulkTransferProcess
                0x0000000023f1fe38      0x378 build/default/debug/_ext/1535495969/drv_usb_ehci.o
                0x0000000023f1fe38                F_DRV_USB_EHCI_BulkTransferProcess
 .text.F_DRV_USB_EHCI_ControlTransferProcess
                0x0000000023f201b0      0x298 build/default/debug/_ext/1535495969/drv_usb_ehci.o
                0x0000000023f201b0                F_DRV_USB_EHCI_ControlTransferProcess
 .text.F_DRV_USB_EHCI_PeriodicListRemove
                0x0000000023f20448       0xfc build/default/debug/_ext/1535495969/drv_usb_ehci.o
                0x0000000023f20448                F_DRV_USB_EHCI_PeriodicListRemove
 .text.F_DRV_USB_EHCI_PipeCloseTask
                0x0000000023f20544      0x59c build/default/debug/_ext/1535495969/drv_usb_ehci.o
                0x0000000023f20544                F_DRV_USB_EHCI_PipeCloseTask
 .text.DRV_USB_EHCI_Initialize
                0x0000000023f20ae0      0x638 build/default/debug/_ext/1535495969/drv_usb_ehci.o
                0x0000000023f20ae0                DRV_USB_EHCI_Initialize
 .text.DRV_USB_EHCI_Open
                0x0000000023f21118      0x144 build/default/debug/_ext/1535495969/drv_usb_ehci.o
                0x0000000023f21118                DRV_USB_EHCI_Open
 .text.DRV_USB_EHCI_Close
                0x0000000023f2125c       0x90 build/default/debug/_ext/1535495969/drv_usb_ehci.o
                0x0000000023f2125c                DRV_USB_EHCI_Close
 .text.DRV_USB_EHCI_Tasks
                0x0000000023f212ec       0xe0 build/default/debug/_ext/1535495969/drv_usb_ehci.o
                0x0000000023f212ec                DRV_USB_EHCI_Tasks
 .text.DRV_USB_EHCI_IRPSubmit
                0x0000000023f213cc      0xb40 build/default/debug/_ext/1535495969/drv_usb_ehci.o
                0x0000000023f213cc                DRV_USB_EHCI_IRPSubmit
 .text.DRV_USB_EHCI_IRPCancel
                0x0000000023f21f0c      0x3a4 build/default/debug/_ext/1535495969/drv_usb_ehci.o
                0x0000000023f21f0c                DRV_USB_EHCI_IRPCancel
 .text.DRV_USB_EHCI_PipeClose
                0x0000000023f222b0      0x33c build/default/debug/_ext/1535495969/drv_usb_ehci.o
                0x0000000023f222b0                DRV_USB_EHCI_PipeClose
 .text.DRV_USB_EHCI_PipeSetup
                0x0000000023f225ec      0x798 build/default/debug/_ext/1535495969/drv_usb_ehci.o
                0x0000000023f225ec                DRV_USB_EHCI_PipeSetup
 .text.DRV_USB_EHCI_EventsDisable
                0x0000000023f22d84       0xa4 build/default/debug/_ext/1535495969/drv_usb_ehci.o
                0x0000000023f22d84                DRV_USB_EHCI_EventsDisable
 .text.DRV_USB_EHCI_EventsEnable
                0x0000000023f22e28       0xa4 build/default/debug/_ext/1535495969/drv_usb_ehci.o
                0x0000000023f22e28                DRV_USB_EHCI_EventsEnable
 .text.DRV_USB_EHCI_OperationEnable
                0x0000000023f22ecc      0x11c build/default/debug/_ext/1535495969/drv_usb_ehci.o
                0x0000000023f22ecc                DRV_USB_EHCI_OperationEnable
 .text.DRV_USB_EHCI_OperationIsEnabled
                0x0000000023f22fe8      0x3b0 build/default/debug/_ext/1535495969/drv_usb_ehci.o
                0x0000000023f22fe8                DRV_USB_EHCI_OperationIsEnabled
 .text.DRV_USB_EHCI_PortReset
                0x0000000023f23398      0x110 build/default/debug/_ext/1535495969/drv_usb_ehci.o
                0x0000000023f23398                DRV_USB_EHCI_PortReset
 .text.DRV_USB_EHCI_PortSpeedGet
                0x0000000023f234a8      0x10c build/default/debug/_ext/1535495969/drv_usb_ehci.o
                0x0000000023f234a8                DRV_USB_EHCI_PortSpeedGet
 .text.DRV_USB_EHCI_PortResetIsComplete
                0x0000000023f235b4       0xf0 build/default/debug/_ext/1535495969/drv_usb_ehci.o
                0x0000000023f235b4                DRV_USB_EHCI_PortResetIsComplete
 .text.DRV_USB_EHCI_PortResume
                0x0000000023f236a4       0x2c build/default/debug/_ext/1535495969/drv_usb_ehci.o
                0x0000000023f236a4                DRV_USB_EHCI_PortResume
 .text.DRV_USB_EHCI_PortSuspend
                0x0000000023f236d0       0x2c build/default/debug/_ext/1535495969/drv_usb_ehci.o
                0x0000000023f236d0                DRV_USB_EHCI_PortSuspend
 .text.DRV_USB_EHCI_BusSpeedGet
                0x0000000023f236fc       0x80 build/default/debug/_ext/1535495969/drv_usb_ehci.o
                0x0000000023f236fc                DRV_USB_EHCI_BusSpeedGet
 .text.DRV_USB_EHCI_MaximumCurrentGet
                0x0000000023f2377c       0x9c build/default/debug/_ext/1535495969/drv_usb_ehci.o
                0x0000000023f2377c                DRV_USB_EHCI_MaximumCurrentGet
 .text.DRV_USB_EHCI_PortNumbersGet
                0x0000000023f23818       0xac build/default/debug/_ext/1535495969/drv_usb_ehci.o
                0x0000000023f23818                DRV_USB_EHCI_PortNumbersGet
 .text.DRV_USB_EHCI_RootHubInitialize
                0x0000000023f238c4       0x94 build/default/debug/_ext/1535495969/drv_usb_ehci.o
                0x0000000023f238c4                DRV_USB_EHCI_RootHubInitialize
 .text.DRV_USB_EHCI_EndpointToggleClear
                0x0000000023f23958       0xe4 build/default/debug/_ext/1535495969/drv_usb_ehci.o
                0x0000000023f23958                DRV_USB_EHCI_EndpointToggleClear
 .text.DRV_USB_EHCI_Tasks_ISR
                0x0000000023f23a3c      0x37c build/default/debug/_ext/1535495969/drv_usb_ehci.o
                0x0000000023f23a3c                DRV_USB_EHCI_Tasks_ISR
 .text.UHPHS_Handler
                0x0000000023f23db8       0x38 build/default/debug/_ext/1535495969/drv_usb_ehci.o
                0x0000000023f23db8                UHPHS_Handler
 .text.undefined_instruction_irq_handler
                0x0000000023f23df0        0xc build/default/debug/_ext/1171490990/fault_handlers.o
                0x0000000023f23df0                undefined_instruction_irq_handler
 .text.software_interrupt_irq_handler
                0x0000000023f23dfc        0xc build/default/debug/_ext/1171490990/fault_handlers.o
                0x0000000023f23dfc                software_interrupt_irq_handler
 .text.data_abort_irq_handler
                0x0000000023f23e08        0xc build/default/debug/_ext/1171490990/fault_handlers.o
                0x0000000023f23e08                data_abort_irq_handler
 .text.prefetch_abort_irq_handler
                0x0000000023f23e14        0xc build/default/debug/_ext/1171490990/fault_handlers.o
                0x0000000023f23e14                prefetch_abort_irq_handler
 .text.PIO_Initialize
                0x0000000023f23e20      0x1d0 build/default/debug/_ext/60177924/plib_pio.o
                0x0000000023f23e20                PIO_Initialize
 .text.SYS_FS_MEDIA_T_MANAGER_UpdateVolToPart
                0x0000000023f23ff0       0x64 build/default/debug/_ext/1269487135/sys_fs_media_manager.o
 .text.SYS_FS_MEDIA_T_MANAGER_HandleMediaDetach
                0x0000000023f24054      0x220 build/default/debug/_ext/1269487135/sys_fs_media_manager.o
 .text.lSYS_FS_MountVolume
                0x0000000023f24274      0x1e4 build/default/debug/_ext/1269487135/sys_fs_media_manager.o
 .text.SYS_FS_MEDIA_T_MANAGER_PopulateVolume
                0x0000000023f24458      0x40c build/default/debug/_ext/1269487135/sys_fs_media_manager.o
 .text.SYS_FS_MEDIA_T_MANAGER_FindNextMedia
                0x0000000023f24864      0x1a4 build/default/debug/_ext/1269487135/sys_fs_media_manager.o
 .text.SYS_FS_MEDIA_MANAGER_IsFSFat
                0x0000000023f24a08       0x80 build/default/debug/_ext/1269487135/sys_fs_media_manager.o
 .text.SYS_FS_MEDIA_T_MANAGER_AnalyzeFileSystem
                0x0000000023f24a88      0x314 build/default/debug/_ext/1269487135/sys_fs_media_manager.o
 .text.SYS_FS_MEDIA_MANAGER_Register
                0x0000000023f24d9c      0x164 build/default/debug/_ext/1269487135/sys_fs_media_manager.o
                0x0000000023f24d9c                SYS_FS_MEDIA_MANAGER_Register
 .text.SYS_FS_MEDIA_MANAGER_DeRegister
                0x0000000023f24f00       0x44 build/default/debug/_ext/1269487135/sys_fs_media_manager.o
                0x0000000023f24f00                SYS_FS_MEDIA_MANAGER_DeRegister
 .text.SYS_FS_MEDIA_MANAGER_SectorRead
                0x0000000023f24f44      0x128 build/default/debug/_ext/1269487135/sys_fs_media_manager.o
                0x0000000023f24f44                SYS_FS_MEDIA_MANAGER_SectorRead
 .text.SYS_FS_MEDIA_MANAGER_SectorWrite
                0x0000000023f2506c      0x488 build/default/debug/_ext/1269487135/sys_fs_media_manager.o
                0x0000000023f2506c                SYS_FS_MEDIA_MANAGER_SectorWrite
 .text.SYS_FS_MEDIA_MANAGER_MediaStatusGet
                0x0000000023f254f4      0x144 build/default/debug/_ext/1269487135/sys_fs_media_manager.o
                0x0000000023f254f4                SYS_FS_MEDIA_MANAGER_MediaStatusGet
 .text.SYS_FS_MEDIA_MANAGER_VolumePropertyGet
                0x0000000023f25638       0xfc build/default/debug/_ext/1269487135/sys_fs_media_manager.o
                0x0000000023f25638                SYS_FS_MEDIA_MANAGER_VolumePropertyGet
 .text.SYS_FS_MEDIA_MANAGER_EventHandlerSet
                0x0000000023f25734       0xa0 build/default/debug/_ext/1269487135/sys_fs_media_manager.o
                0x0000000023f25734                SYS_FS_MEDIA_MANAGER_EventHandlerSet
 .text.SYS_FS_MEDIA_MANAGER_RegisterTransferHandler
                0x0000000023f257d4       0x30 build/default/debug/_ext/1269487135/sys_fs_media_manager.o
                0x0000000023f257d4                SYS_FS_MEDIA_MANAGER_RegisterTransferHandler
 .text.SYS_FS_MEDIA_MANAGER_EventHandler
                0x0000000023f25804       0xb0 build/default/debug/_ext/1269487135/sys_fs_media_manager.o
 .text.SYS_FS_MEDIA_MANAGER_GetMediaGeometry
                0x0000000023f258b4       0x80 build/default/debug/_ext/1269487135/sys_fs_media_manager.o
                0x0000000023f258b4                SYS_FS_MEDIA_MANAGER_GetMediaGeometry
 .text.SYS_FS_MEDIA_MANAGER_TransferTask
                0x0000000023f25934       0xa0 build/default/debug/_ext/1269487135/sys_fs_media_manager.o
                0x0000000023f25934                SYS_FS_MEDIA_MANAGER_TransferTask
 .text.SYS_FS_MEDIA_MANAGER_Tasks
                0x0000000023f259d4      0x4b0 build/default/debug/_ext/1269487135/sys_fs_media_manager.o
                0x0000000023f259d4                SYS_FS_MEDIA_MANAGER_Tasks
 .text.SPURIOUS_INTERRUPT_Handler
                0x0000000023f25e84       0x34 build/default/debug/_ext/1171490990/interrupts.o
                0x0000000023f25e84                SPURIOUS_INTERRUPT_Handler
 .text.SYS_FS_GetDisk
                0x0000000023f25eb8      0x2ac build/default/debug/_ext/1269487135/sys_fs.o
 .text.SYS_FS_Initialize
                0x0000000023f26164      0x2a8 build/default/debug/_ext/1269487135/sys_fs.o
                0x0000000023f26164                SYS_FS_Initialize
 .text.SYS_FS_Tasks
                0x0000000023f2640c       0x14 build/default/debug/_ext/1269487135/sys_fs.o
                0x0000000023f2640c                SYS_FS_Tasks
 .text.SYS_FS_EventHandlerSet
                0x0000000023f26420       0x2c build/default/debug/_ext/1269487135/sys_fs.o
                0x0000000023f26420                SYS_FS_EventHandlerSet
 .text.SYS_FS_Mount
                0x0000000023f2644c      0x590 build/default/debug/_ext/1269487135/sys_fs.o
                0x0000000023f2644c                SYS_FS_Mount
 .text.SYS_FS_Unmount
                0x0000000023f269dc      0x358 build/default/debug/_ext/1269487135/sys_fs.o
                0x0000000023f269dc                SYS_FS_Unmount
 .text.SYS_FS_FileOpen
                0x0000000023f26d34      0x3b8 build/default/debug/_ext/1269487135/sys_fs.o
                0x0000000023f26d34                SYS_FS_FileOpen
 .text.SYS_FS_FileClose
                0x0000000023f270ec      0x1a4 build/default/debug/_ext/1269487135/sys_fs.o
                0x0000000023f270ec                SYS_FS_FileClose
 .text.SYS_FS_FileRead
                0x0000000023f27290      0x1a0 build/default/debug/_ext/1269487135/sys_fs.o
                0x0000000023f27290                SYS_FS_FileRead
 .text.SYS_FS_FileSize
                0x0000000023f27430      0x194 build/default/debug/_ext/1269487135/sys_fs.o
                0x0000000023f27430                SYS_FS_FileSize
 .text.SYS_FS_Error
                0x0000000023f275c4       0x24 build/default/debug/_ext/1269487135/sys_fs.o
                0x0000000023f275c4                SYS_FS_Error
 .text.read     0x0000000023f275e8       0x80 build/default/debug/_ext/163028504/xc32_monitor.o
                0x0000000023f275e8                read
 .text.write    0x0000000023f27668       0x64 build/default/debug/_ext/163028504/xc32_monitor.o
                0x0000000023f27668                write
 .text.ff_uni2oem
                0x0000000023f276cc       0xd0 build/default/debug/_ext/411819097/ffunicode.o
                0x0000000023f276cc                ff_uni2oem
 .text.ff_oem2uni
                0x0000000023f2779c       0x9c build/default/debug/_ext/411819097/ffunicode.o
                0x0000000023f2779c                ff_oem2uni
 .text.ff_wtoupper
                0x0000000023f27838      0x1f8 build/default/debug/_ext/411819097/ffunicode.o
                0x0000000023f27838                ff_wtoupper
 .text.initSlowClk
                0x0000000023f27a30       0x34 build/default/debug/_ext/60165520/plib_clk.o
 .text.initMainClk
                0x0000000023f27a64       0xc0 build/default/debug/_ext/60165520/plib_clk.o
 .text.CLK_PLLAInitialize
                0x0000000023f27b24       0x48 build/default/debug/_ext/60165520/plib_clk.o
 .text.CLK_MasterClockInitialize
                0x0000000023f27b6c       0xc4 build/default/debug/_ext/60165520/plib_clk.o
 .text.CLK_UTMIPLLInitialize
                0x0000000023f27c30       0x70 build/default/debug/_ext/60165520/plib_clk.o
 .text.CLK_USBClockInitialize
                0x0000000023f27ca0       0x38 build/default/debug/_ext/60165520/plib_clk.o
 .text.CLK_PeripheralClockInitialize
                0x0000000023f27cd8       0x60 build/default/debug/_ext/60165520/plib_clk.o
 .text.initDDRClk
                0x0000000023f27d38       0x34 build/default/debug/_ext/60165520/plib_clk.o
 .text.CLK_Initialize
                0x0000000023f27d6c       0x30 build/default/debug/_ext/60165520/plib_clk.o
                0x0000000023f27d6c                CLK_Initialize
 .text.MMU_Enable
                0x0000000023f27d9c       0x40 build/default/debug/_ext/60175171/plib_mmu.o
 .text.mmu_configure
                0x0000000023f27ddc       0x48 build/default/debug/_ext/60175171/plib_mmu.o
 .text.icache_Enable
                0x0000000023f27e24       0x68 build/default/debug/_ext/60175171/plib_mmu.o
                0x0000000023f27e24                icache_Enable
 .text.dcache_Enable
                0x0000000023f27e8c      0x2ac build/default/debug/_ext/60175171/plib_mmu.o
                0x0000000023f27e8c                dcache_Enable
 .text.MMU_Initialize
                0x0000000023f28138      0x518 build/default/debug/_ext/60175171/plib_mmu.o
                0x0000000023f28138                MMU_Initialize
 .text.SYS_TIME_UPDATE_TOKEN
                0x0000000023f28650       0x4c build/default/debug/_ext/101884895/sys_time.o
 .text.SYS_TIME_MAKE_HANDLE
                0x0000000023f2869c       0x40 build/default/debug/_ext/101884895/sys_time.o
 .text.SYS_TIME_ResourceLock
                0x0000000023f286dc       0xac build/default/debug/_ext/101884895/sys_time.o
 .text.SYS_TIME_ResourceUnlock
                0x0000000023f28788       0x74 build/default/debug/_ext/101884895/sys_time.o
 .text.SYS_TIME_GetTimerObject
                0x0000000023f287fc       0x9c build/default/debug/_ext/101884895/sys_time.o
 .text.SYS_TIME_HwTimerCompareUpdate
                0x0000000023f28898      0x1b8 build/default/debug/_ext/101884895/sys_time.o
 .text.SYS_TIME_RemoveFromList
                0x0000000023f28a50      0x124 build/default/debug/_ext/101884895/sys_time.o
 .text.SYS_TIME_AddToList
                0x0000000023f28b74      0x1c4 build/default/debug/_ext/101884895/sys_time.o
 .text.SYS_TIME_GetElapsedCount
                0x0000000023f28d38       0x78 build/default/debug/_ext/101884895/sys_time.o
 .text.SYS_TIME_UpdateTimerList
                0x0000000023f28db0       0xd0 build/default/debug/_ext/101884895/sys_time.o
 .text.SYS_TIME_TimerAdd
                0x0000000023f28e80       0xe8 build/default/debug/_ext/101884895/sys_time.o
 .text.SYS_TIME_ClientNotify
                0x0000000023f28f68       0xfc build/default/debug/_ext/101884895/sys_time.o
 .text.SYS_TIME_UpdateTime
                0x0000000023f29064       0xf8 build/default/debug/_ext/101884895/sys_time.o
 .text.SYS_TIME_PLIBCallback
                0x0000000023f2915c       0xf8 build/default/debug/_ext/101884895/sys_time.o
 .text.SYS_TIME_TimerObjectCreate
                0x0000000023f29254      0x1bc build/default/debug/_ext/101884895/sys_time.o
 .text.SYS_TIME_CounterInit
                0x0000000023f29410      0x1a8 build/default/debug/_ext/101884895/sys_time.o
 .text.SYS_TIME_Initialize
                0x0000000023f295b8       0xb8 build/default/debug/_ext/101884895/sys_time.o
                0x0000000023f295b8                SYS_TIME_Initialize
 .text.SYS_TIME_MSToCount
                0x0000000023f29670       0x6c build/default/debug/_ext/101884895/sys_time.o
                0x0000000023f29670                SYS_TIME_MSToCount
 .text.SYS_TIME_TimerDestroy
                0x0000000023f296dc       0xbc build/default/debug/_ext/101884895/sys_time.o
                0x0000000023f296dc                SYS_TIME_TimerDestroy
 .text.SYS_TIME_TimerStart
                0x0000000023f29798       0xf8 build/default/debug/_ext/101884895/sys_time.o
                0x0000000023f29798                SYS_TIME_TimerStart
 .text.SYS_TIME_TimerPeriodHasExpired
                0x0000000023f29890       0x84 build/default/debug/_ext/101884895/sys_time.o
                0x0000000023f29890                SYS_TIME_TimerPeriodHasExpired
 .text.SYS_TIME_DelayMS
                0x0000000023f29914       0xa4 build/default/debug/_ext/101884895/sys_time.o
                0x0000000023f29914                SYS_TIME_DelayMS
 .text.SYS_TIME_DelayIsComplete
                0x0000000023f299b8       0x4c build/default/debug/_ext/101884895/sys_time.o
                0x0000000023f299b8                SYS_TIME_DelayIsComplete
 .text.SYS_TIME_CallbackRegisterMS
                0x0000000023f29a04       0x9c build/default/debug/_ext/101884895/sys_time.o
                0x0000000023f29a04                SYS_TIME_CallbackRegisterMS
 .text.diskEventHandler
                0x0000000023f29aa0       0x94 build/default/debug/_ext/565198302/diskio.o
                0x0000000023f29aa0                diskEventHandler
 .text.disk_checkCommandStatus
                0x0000000023f29b34       0xc4 build/default/debug/_ext/565198302/diskio.o
 .text.disk_status
                0x0000000023f29bf8       0x28 build/default/debug/_ext/565198302/diskio.o
                0x0000000023f29bf8                disk_status
 .text.disk_initialize
                0x0000000023f29c20       0x34 build/default/debug/_ext/565198302/diskio.o
                0x0000000023f29c20                disk_initialize
 .text.disk_read_aligned
                0x0000000023f29c54       0xd0 build/default/debug/_ext/565198302/diskio.o
 .text.disk_read
                0x0000000023f29d24      0x210 build/default/debug/_ext/565198302/diskio.o
                0x0000000023f29d24                disk_read
 .text.disk_write
                0x0000000023f29f34      0x264 build/default/debug/_ext/565198302/diskio.o
                0x0000000023f29f34                disk_write
 .text.disk_ioctl
                0x0000000023f2a198       0xe0 build/default/debug/_ext/565198302/diskio.o
                0x0000000023f2a198                disk_ioctl
 .text.get_fattime
                0x0000000023f2a278       0x84 build/default/debug/_ext/565198302/diskio.o
                0x0000000023f2a278                get_fattime
 .text.UART1_ErrorClear
                0x0000000023f2a2fc       0x60 build/default/debug/_ext/1865657120/plib_uart1.o
 .text.UART1_Initialize
                0x0000000023f2a35c       0x58 build/default/debug/_ext/1865657120/plib_uart1.o
                0x0000000023f2a35c                UART1_Initialize
 .text.UART1_ErrorGet
                0x0000000023f2a3b4       0x50 build/default/debug/_ext/1865657120/plib_uart1.o
                0x0000000023f2a3b4                UART1_ErrorGet
 .text.UART1_Read
                0x0000000023f2a404       0xf0 build/default/debug/_ext/1865657120/plib_uart1.o
                0x0000000023f2a404                UART1_Read
 .text.UART1_Write
                0x0000000023f2a4f4       0xa8 build/default/debug/_ext/1865657120/plib_uart1.o
                0x0000000023f2a4f4                UART1_Write
 .text          0x0000000023f2a59c       0xac c:/program files/microchip/xc32/v4.60/bin/bin/../../lib/gcc/pic32c/8.3.1/thumb/v7-a+simd/hard\libgcc.a(_udivsi3.o)
                0x0000000023f2a59c                __aeabi_uidiv
                0x0000000023f2a59c                __udivsi3
                0x0000000023f2a62c                __aeabi_uidivmod
 .text          0x0000000023f2a648       0xe0 c:/program files/microchip/xc32/v4.60/bin/bin/../../lib/gcc/pic32c/8.3.1/thumb/v7-a+simd/hard\libgcc.a(_divsi3.o)
                0x0000000023f2a648                __divsi3
                0x0000000023f2a648                __aeabi_idiv
                0x0000000023f2a70c                __aeabi_idivmod
 .text          0x0000000023f2a728        0x4 c:/program files/microchip/xc32/v4.60/bin/bin/../../lib/gcc/pic32c/8.3.1/thumb/v7-a+simd/hard\libgcc.a(_dvmd_tls.o)
                0x0000000023f2a728                __aeabi_idiv0
                0x0000000023f2a728                __aeabi_ldiv0
 .text          0x0000000023f2a72c       0x30 c:/program files/microchip/xc32/v4.60/bin/bin/../../lib/gcc/pic32c/8.3.1/thumb/v7-a+simd/hard\libgcc.a(_aeabi_uldivmod.o)
                0x0000000023f2a72c                __aeabi_uldivmod
 .text          0x0000000023f2a75c      0x124 c:/program files/microchip/xc32/v4.60/bin/bin/../../lib/gcc/pic32c/8.3.1/thumb/v7-a+simd/hard\libgcc.a(_udivmoddi4.o)
                0x0000000023f2a75c                __udivmoddi4
 .text.memcmp   0x0000000023f2a880       0x1c c:/program files/microchip/xc32/v4.60/bin/bin/../../lib/gcc/pic32c/8.3.1/../../../../pic32c/lib/thumb/v7-a+simd/hard\libc-size-musl.a(memcmp.o)
                0x0000000023f2a880                memcmp
 .text.memcpy   0x0000000023f2a89c       0x1c c:/program files/microchip/xc32/v4.60/bin/bin/../../lib/gcc/pic32c/8.3.1/../../../../pic32c/lib/thumb/v7-a+simd/hard\libc-size-musl.a(memcpy.o)
                0x0000000023f2a89c                memcpy
 .text.memmove  0x0000000023f2a8b8       0x40 c:/program files/microchip/xc32/v4.60/bin/bin/../../lib/gcc/pic32c/8.3.1/../../../../pic32c/lib/thumb/v7-a+simd/hard\libc-size-musl.a(memmove.o)
                0x0000000023f2a8b8                memmove
 .text.memset   0x0000000023f2a8f8       0x14 c:/program files/microchip/xc32/v4.60/bin/bin/../../lib/gcc/pic32c/8.3.1/../../../../pic32c/lib/thumb/v7-a+simd/hard\libc-size-musl.a(memset.o)
                0x0000000023f2a8f8                memset
 .text.strlen   0x0000000023f2a90c       0x18 c:/program files/microchip/xc32/v4.60/bin/bin/../../lib/gcc/pic32c/8.3.1/../../../../pic32c/lib/thumb/v7-a+simd/hard\libc-size-musl.a(strlen.o)
                0x0000000023f2a90c                strlen
 .text.strchr   0x0000000023f2a924       0x14 c:/program files/microchip/xc32/v4.60/bin/bin/../../lib/gcc/pic32c/8.3.1/../../../../pic32c/lib/thumb/v7-a+simd/hard\libc-size-musl.a(strchr.o)
                0x0000000023f2a924                strchr
 .text.__strchrnul
                0x0000000023f2a938       0x60 c:/program files/microchip/xc32/v4.60/bin/bin/../../lib/gcc/pic32c/8.3.1/../../../../pic32c/lib/thumb/v7-a+simd/hard\libc-size-musl.a(strchrnul.o)
                0x0000000023f2a938                strchrnul
                0x0000000023f2a938                __strchrnul
 .text.strcmp   0x0000000023f2a998       0x16 c:/program files/microchip/xc32/v4.60/bin/bin/../../lib/gcc/pic32c/8.3.1/../../../../pic32c/lib/thumb/v7-a+simd/hard\libc-size-musl.a(strcmp.o)
                0x0000000023f2a998                strcmp
 .text.strncmp  0x0000000023f2a9ae       0x28 c:/program files/microchip/xc32/v4.60/bin/bin/../../lib/gcc/pic32c/8.3.1/../../../../pic32c/lib/thumb/v7-a+simd/hard\libc-size-musl.a(strncmp.o)
                0x0000000023f2a9ae                strncmp
 *fill*         0x0000000023f2a9d6        0x2 
 .text.__init_search_fl
                0x0000000023f2a9d8       0x18 c:/program files/microchip/xc32/v4.60/bin/bin/../../lib/gcc/pic32c/8.3.1/../../../../pic32c/lib/thumb/v7-a+simd/hard\liblmalloc-musl.a(lite_free.o)
                0x0000000023f2a9d8                __init_search_fl
 .text.__simple_search_fl
                0x0000000023f2a9f0       0x84 c:/program files/microchip/xc32/v4.60/bin/bin/../../lib/gcc/pic32c/8.3.1/../../../../pic32c/lib/thumb/v7-a+simd/hard\liblmalloc-musl.a(lite_free.o)
                0x0000000023f2a9f0                __simple_search_fl
 .text.__simple_free
                0x0000000023f2aa74       0x44 c:/program files/microchip/xc32/v4.60/bin/bin/../../lib/gcc/pic32c/8.3.1/../../../../pic32c/lib/thumb/v7-a+simd/hard\liblmalloc-musl.a(lite_free.o)
                0x0000000023f2aa74                __simple_free
                0x0000000023f2aa74                free
                0x0000000023f2aa74                __free0
 .text.__simple_malloc
                0x0000000023f2aab8       0x60 c:/program files/microchip/xc32/v4.60/bin/bin/../../lib/gcc/pic32c/8.3.1/../../../../pic32c/lib/thumb/v7-a+simd/hard\liblmalloc-musl.a(lite_malloc.o)
                0x0000000023f2aab8                __malloc0
                0x0000000023f2aab8                __simple_malloc
                0x0000000023f2aab8                malloc
 .text.__dummy  0x0000000023f2ab18        0x2 c:/program files/microchip/xc32/v4.60/bin/bin/../../lib/gcc/pic32c/8.3.1/../../../../pic32c/lib/thumb/v7-a+simd/hard\libg-musl.a(__libc_start_main.o)
                0x0000000023f2ab18                __init_host
 *fill*         0x0000000023f2ab1a        0x2 
 .text.__libc_start_init
                0x0000000023f2ab1c       0x5c c:/program files/microchip/xc32/v4.60/bin/bin/../../lib/gcc/pic32c/8.3.1/../../../../pic32c/lib/thumb/v7-a+simd/hard\libg-musl.a(__libc_start_main.o)
                0x0000000023f2ab1c                __libc_init_array
 .text.__expand_heap
                0x0000000023f2ab78       0x16 c:/program files/microchip/xc32/v4.60/bin/bin/../../lib/gcc/pic32c/8.3.1/../../../../pic32c/lib/thumb/v7-a+simd/hard\libg-musl.a(expand_heap.o)
                0x0000000023f2ab78                __expand_heap
 *fill*         0x0000000023f2ab8e        0x2 
 .text.__wrap_printf
                0x0000000023f2ab90       0x24 c:/program files/microchip/xc32/v4.60/bin/bin/../../lib/gcc/pic32c/8.3.1/../../../../pic32c/lib/thumb/v7-a+simd/hard\libg-musl.a(__sio_printf_dn.o)
                0x0000000023f2ab90                _dprintf_dn
                0x0000000023f2ab90                _printf_dn
 .text.__fmt_d  0x0000000023f2abb4       0xa8 c:/program files/microchip/xc32/v4.60/bin/bin/../../lib/gcc/pic32c/8.3.1/../../../../pic32c/lib/thumb/v7-a+simd/hard\libg-musl.a(__fmt_d.o)
                0x0000000023f2abb4                __fmt_d
                0x0000000023f2abb4                __fmt_d_needed
 .text.__pop_int
                0x0000000023f2ac5c       0xac c:/program files/microchip/xc32/v4.60/bin/bin/../../lib/gcc/pic32c/8.3.1/../../../../pic32c/lib/thumb/v7-a+simd/hard\libg-musl.a(__pop_int.o)
                0x0000000023f2ac5c                __pop_int_needed
                0x0000000023f2ac5c                __pop_int
 .text.__pop_ptr
                0x0000000023f2ad08       0x7c c:/program files/microchip/xc32/v4.60/bin/bin/../../lib/gcc/pic32c/8.3.1/../../../../pic32c/lib/thumb/v7-a+simd/hard\libg-musl.a(__pop_ptr.o)
                0x0000000023f2ad08                __pop_ptr
                0x0000000023f2ad08                __pop_ptr_needed
 .text.__pad    0x0000000023f2ad84       0x7e c:/program files/microchip/xc32/v4.60/bin/bin/../../lib/gcc/pic32c/8.3.1/../../../../pic32c/lib/thumb/v7-a+simd/hard\libg-musl.a(__printf_core.o)
                0x0000000023f2ad84                __pad
 .text.__dummy_fmt3
                0x0000000023f2ae02        0x4 c:/program files/microchip/xc32/v4.60/bin/bin/../../lib/gcc/pic32c/8.3.1/../../../../pic32c/lib/thumb/v7-a+simd/hard\libg-musl.a(__printf_core.o)
                0x0000000023f2ae02                __fmt_o
                0x0000000023f2ae02                __fmt_u
 .text.__dummy_fmt4
                0x0000000023f2ae06        0x4 c:/program files/microchip/xc32/v4.60/bin/bin/../../lib/gcc/pic32c/8.3.1/../../../../pic32c/lib/thumb/v7-a+simd/hard\libg-musl.a(__printf_core.o)
                0x0000000023f2ae06                __fmt_fp
                0x0000000023f2ae06                __fmt_x
                0x0000000023f2ae06                __fmt_a
 .text.__dummy_fmts
                0x0000000023f2ae0a        0x4 c:/program files/microchip/xc32/v4.60/bin/bin/../../lib/gcc/pic32c/8.3.1/../../../../pic32c/lib/thumb/v7-a+simd/hard\libg-musl.a(__printf_core.o)
                0x0000000023f2ae0a                __fmt_s
 *fill*         0x0000000023f2ae0e        0x2 
 .text.__fmt_state
                0x0000000023f2ae10       0x38 c:/program files/microchip/xc32/v4.60/bin/bin/../../lib/gcc/pic32c/8.3.1/../../../../pic32c/lib/thumb/v7-a+simd/hard\libg-musl.a(__printf_core.o)
                0x0000000023f2ae10                __fmt_state
 .text.__printf_core
                0x0000000023f2ae48      0x308 c:/program files/microchip/xc32/v4.60/bin/bin/../../lib/gcc/pic32c/8.3.1/../../../../pic32c/lib/thumb/v7-a+simd/hard\libg-musl.a(__printf_core.o)
                0x0000000023f2ae48                __printf_core
 .text.__dummy  0x0000000023f2b150        0x4 c:/program files/microchip/xc32/v4.60/bin/bin/../../lib/gcc/pic32c/8.3.1/../../../../pic32c/lib/thumb/v7-a+simd/hard\libg-musl.a(stdin.o)
                0x0000000023f2b150                __stdio_seek_rw
 .text.__init_stdout
                0x0000000023f2b154       0x14 c:/program files/microchip/xc32/v4.60/bin/bin/../../lib/gcc/pic32c/8.3.1/../../../../pic32c/lib/thumb/v7-a+simd/hard\libg-musl.a(stdout.o)
                0x0000000023f2b154                __init_stdout
 .text.puts     0x0000000023f2b168       0x28 c:/program files/microchip/xc32/v4.60/bin/bin/../../lib/gcc/pic32c/8.3.1/../../../../pic32c/lib/thumb/v7-a+simd/hard\libg-musl.a(puts.o)
                0x0000000023f2b168                puts
 .text.setbuf   0x0000000023f2b190       0x10 c:/program files/microchip/xc32/v4.60/bin/bin/../../lib/gcc/pic32c/8.3.1/../../../../pic32c/lib/thumb/v7-a+simd/hard\libg-musl.a(setbuf.o)
                0x0000000023f2b190                setbuf
 .text.atoi     0x0000000023f2b1a0       0x44 c:/program files/microchip/xc32/v4.60/bin/bin/../../lib/gcc/pic32c/8.3.1/../../../../pic32c/lib/thumb/v7-a+simd/hard\libg-musl.a(atoi.o)
                0x0000000023f2b1a0                atoi
 .text.tolower  0x0000000023f2b1e4        0xe c:/program files/microchip/xc32/v4.60/bin/bin/../../lib/gcc/pic32c/8.3.1/../../../../pic32c/lib/thumb/v7-a+simd/hard\libg-musl.a(tolower.o)
                0x0000000023f2b1e4                tolower
 .text.__vfprintf
                0x0000000023f2b1f2       0x1c c:/program files/microchip/xc32/v4.60/bin/bin/../../lib/gcc/pic32c/8.3.1/../../../../pic32c/lib/thumb/v7-a+simd/hard\libg-musl.a(__int_vfprintf.o)
                0x0000000023f2b1f2                __vfprintf
 .text.fputs    0x0000000023f2b20e       0x22 c:/program files/microchip/xc32/v4.60/bin/bin/../../lib/gcc/pic32c/8.3.1/../../../../pic32c/lib/thumb/v7-a+simd/hard\libg-musl.a(fputs.o)
                0x0000000023f2b20e                fputs
                0x0000000023f2b20e                fputs_unlocked
 .text.__cvt_u  0x0000000023f2b230       0x84 c:/program files/microchip/xc32/v4.60/bin/bin/../../lib/gcc/pic32c/8.3.1/../../../../pic32c/lib/thumb/v7-a+simd/hard\libg-musl.a(__cvt_u.o)
                0x0000000023f2b230                __cvt_u
 .text.__pop_float
                0x0000000023f2b2b4       0x2a c:/program files/microchip/xc32/v4.60/bin/bin/../../lib/gcc/pic32c/8.3.1/../../../../pic32c/lib/thumb/v7-a+simd/hard\libg-musl.a(__pop_float.o)
                0x0000000023f2b2b4                __pop_float_needed
                0x0000000023f2b2b4                __pop_float
 .text.__stdio_read
                0x0000000023f2b2de       0x60 c:/program files/microchip/xc32/v4.60/bin/bin/../../lib/gcc/pic32c/8.3.1/../../../../pic32c/lib/thumb/v7-a+simd/hard\libg-musl.a(__stdio_read.o)
                0x0000000023f2b2de                __stdio_read
 .text.__towrite_rw
                0x0000000023f2b33e       0x28 c:/program files/microchip/xc32/v4.60/bin/bin/../../lib/gcc/pic32c/8.3.1/../../../../pic32c/lib/thumb/v7-a+simd/hard\libg-musl.a(__towrite_rw.o)
                0x0000000023f2b33e                __towrite_rw
                0x0000000023f2b33e                __towrite_rw_needed
 .text.fwrite   0x0000000023f2b366       0x2e c:/program files/microchip/xc32/v4.60/bin/bin/../../lib/gcc/pic32c/8.3.1/../../../../pic32c/lib/thumb/v7-a+simd/hard\libg-musl.a(fwrite.o)
                0x0000000023f2b366                fwrite
                0x0000000023f2b366                fwrite_unlocked
 .text.__putc_unbuffered
                0x0000000023f2b394       0x38 c:/program files/microchip/xc32/v4.60/bin/bin/../../lib/gcc/pic32c/8.3.1/../../../../pic32c/lib/thumb/v7-a+simd/hard\libg-musl.a(putc.o)
                0x0000000023f2b394                __putc_unbuffered
 .text.putc     0x0000000023f2b3cc        0x8 c:/program files/microchip/xc32/v4.60/bin/bin/../../lib/gcc/pic32c/8.3.1/../../../../pic32c/lib/thumb/v7-a+simd/hard\libg-musl.a(putc.o)
                0x0000000023f2b3cc                putc
                0x0000000023f2b3cc                fputc
                0x0000000023f2b3cc                _IO_putc
                0x0000000023f2b3cc                putc_unlocked
 .text.setvbuf  0x0000000023f2b3d4       0x4c c:/program files/microchip/xc32/v4.60/bin/bin/../../lib/gcc/pic32c/8.3.1/../../../../pic32c/lib/thumb/v7-a+simd/hard\libg-musl.a(setvbuf.o)
                0x0000000023f2b3d4                setvbuf
 .text.__readv  0x0000000023f2b420       0x2a c:/program files/microchip/xc32/v4.60/bin/bin/../../lib/gcc/pic32c/8.3.1/../../../../pic32c/lib/thumb/v7-a+simd/hard\libg-musl.a(readv.o)
                0x0000000023f2b420                readv
 .text.__dummy  0x0000000023f2b44a        0x2 c:/program files/microchip/xc32/v4.60/bin/bin/../../lib/gcc/pic32c/8.3.1/../../../../pic32c/lib/thumb/v7-a+simd/hard\libg-musl.a(__init_stdio.o)
                0x0000000023f2b44a                __init_stdin
                0x0000000023f2b44a                __init_stderr
 .text.__init_stdio
                0x0000000023f2b44c       0x10 c:/program files/microchip/xc32/v4.60/bin/bin/../../lib/gcc/pic32c/8.3.1/../../../../pic32c/lib/thumb/v7-a+simd/hard\libg-musl.a(__init_stdio.o)
                0x0000000023f2b44c                __init_stdio_needed
                0x0000000023f2b44c                __init_stdio
 .text.__fwrite_min
                0x0000000023f2b45c        0x6 c:/program files/microchip/xc32/v4.60/bin/bin/../../lib/gcc/pic32c/8.3.1/../../../../pic32c/lib/thumb/v7-a+simd/hard\libg-musl.a(__out.o)
                0x0000000023f2b45c                __stdio_write_unbuffered
                0x0000000023f2b45c                __stdio_write
 .text.__out    0x0000000023f2b462       0x3c c:/program files/microchip/xc32/v4.60/bin/bin/../../lib/gcc/pic32c/8.3.1/../../../../pic32c/lib/thumb/v7-a+simd/hard\libg-musl.a(__out.o)
                0x0000000023f2b462                __out
                0x0000000023f2b462                __out_needed
 .text.__putc   0x0000000023f2b49e       0x3e c:/program files/microchip/xc32/v4.60/bin/bin/../../lib/gcc/pic32c/8.3.1/../../../../pic32c/lib/thumb/v7-a+simd/hard\libg-musl.a(__putc.o)
                0x0000000023f2b49e                __putc_needed
                0x0000000023f2b49e                __putc
 .text.__dummy  0x0000000023f2b4dc        0x2 c:/program files/microchip/xc32/v4.60/bin/bin/../../lib/gcc/pic32c/8.3.1/../../../../pic32c/lib/thumb/v7-a+simd/hard\libg-musl.a(__stderr.o)
                0x0000000023f2b4dc                __stdio_seek
 .text.__stdio_close_rw
                0x0000000023f2b4de       0x5c c:/program files/microchip/xc32/v4.60/bin/bin/../../lib/gcc/pic32c/8.3.1/../../../../pic32c/lib/thumb/v7-a+simd/hard\libg-musl.a(__stdio_close.o)
                0x0000000023f2b4de                __stdio_close_rw
 .text.__write_buffered
                0x0000000023f2b53a       0x84 c:/program files/microchip/xc32/v4.60/bin/bin/../../lib/gcc/pic32c/8.3.1/../../../../pic32c/lib/thumb/v7-a+simd/hard\libg-musl.a(__stdio_write.o)
                0x0000000023f2b53a                __do_write
 .text.__stdio_write_buffered
                0x0000000023f2b5be       0x76 c:/program files/microchip/xc32/v4.60/bin/bin/../../lib/gcc/pic32c/8.3.1/../../../../pic32c/lib/thumb/v7-a+simd/hard\libg-musl.a(__stdio_write.o)
                0x0000000023f2b5be                __stdio_write_buffered
 .text.__get_stdout
                0x0000000023f2b634        0x8 c:/program files/microchip/xc32/v4.60/bin/bin/../../lib/gcc/pic32c/8.3.1/../../../../pic32c/lib/thumb/v7-a+simd/hard\libg-musl.a(__stdout.o)
                0x0000000023f2b634                __get_stdout
                0x0000000023f2b634                __init_stdout_needed
 .text.__towrite
                0x0000000023f2b63c       0x18 c:/program files/microchip/xc32/v4.60/bin/bin/../../lib/gcc/pic32c/8.3.1/../../../../pic32c/lib/thumb/v7-a+simd/hard\libg-musl.a(__towrite.o)
                0x0000000023f2b63c                __towrite
 .text.__writev
                0x0000000023f2b654       0x2a c:/program files/microchip/xc32/v4.60/bin/bin/../../lib/gcc/pic32c/8.3.1/../../../../pic32c/lib/thumb/v7-a+simd/hard\libg-musl.a(writev.o)
                0x0000000023f2b654                writev
 .text.__overflow
                0x0000000023f2b67e       0x4e c:/program files/microchip/xc32/v4.60/bin/bin/../../lib/gcc/pic32c/8.3.1/../../../../pic32c/lib/thumb/v7-a+simd/hard\libg-musl.a(__overflow.o)
                0x0000000023f2b67e                __overflow
 .text.__fwrite
                0x0000000023f2b6cc       0x18 c:/program files/microchip/xc32/v4.60/bin/bin/../../lib/gcc/pic32c/8.3.1/../../../../pic32c/lib/thumb/v7-a+simd/hard\libg-musl.a(__fwrite.o)
                0x0000000023f2b6cc                __fwrite
                0x0000000023f2b6cc                __fwrite_needed
 .text.close    0x0000000023f2b6e4        0x6 c:/program files/microchip/xc32/v4.60/bin/bin/../../lib/gcc/pic32c/8.3.1/../../../../pic32c/lib/thumb/v7-a+simd/hard\libpic32c.a(close.o)
                0x0000000023f2b6e4                close
 .text.lseek    0x0000000023f2b6ea        0x4 c:/program files/microchip/xc32/v4.60/bin/bin/../../lib/gcc/pic32c/8.3.1/../../../../pic32c/lib/thumb/v7-a+simd/hard\libpic32c.a(lseek.o)
                0x0000000023f2b6ea                lseek
 *fill*         0x0000000023f2b6ee        0x2 
 .text._sbrk_init
                0x0000000023f2b6f0       0x30 c:/program files/microchip/xc32/v4.60/bin/bin/../../lib/gcc/pic32c/8.3.1/../../../../pic32c/lib/thumb/v7-a+simd/hard\libpic32c.a(sbrk.o)
 .text._get_heap_left_space
                0x0000000023f2b720       0x20 c:/program files/microchip/xc32/v4.60/bin/bin/../../lib/gcc/pic32c/8.3.1/../../../../pic32c/lib/thumb/v7-a+simd/hard\libpic32c.a(sbrk.o)
                0x0000000023f2b720                _get_heap_left_space
 .text._sbrk    0x0000000023f2b740       0x4c c:/program files/microchip/xc32/v4.60/bin/bin/../../lib/gcc/pic32c/8.3.1/../../../../pic32c/lib/thumb/v7-a+simd/hard\libpic32c.a(sbrk.o)
                0x0000000023f2b740                _sbrk
 *(.rodata .rodata* .gnu.linkonce.r.*)
 .rodata        0x0000000023f2b78c       0x1c build/default/debug/_ext/1171490990/initialization.o
 .rodata.sysfsMountTable
                0x0000000023f2b7a8        0xc build/default/debug/_ext/1171490990/initialization.o
                0x0000000023f2b7a8                sysfsMountTable
 .rodata.FatFsFunctions
                0x0000000023f2b7b4       0x88 build/default/debug/_ext/1171490990/initialization.o
 .rodata.sysFSInit
                0x0000000023f2b83c        0x8 build/default/debug/_ext/1171490990/initialization.o
 .rodata.sysTimePlibAPI
                0x0000000023f2b844       0x1c build/default/debug/_ext/1171490990/initialization.o
 .rodata.sysTimeInitData
                0x0000000023f2b860        0x8 build/default/debug/_ext/1171490990/initialization.o
 .rodata        0x0000000023f2b868      0x18c build/default/debug/_ext/1360937237/app.o
 .rodata.GUID_MS_Basic
                0x0000000023f2b9f4       0x10 build/default/debug/_ext/411819097/ff.o
 .rodata.LfnOfs
                0x0000000023f2ba04       0x10 build/default/debug/_ext/411819097/ff.o
 .rodata.ExCvt  0x0000000023f2ba14       0x80 build/default/debug/_ext/411819097/ff.o
 .rodata        0x0000000023f2ba94       0x7c build/default/debug/_ext/411819097/ff.o
 .rodata.badchr.9500
                0x0000000023f2bb10       0x14 build/default/debug/_ext/411819097/ff.o
 .rodata.gpt_mbr.9540
                0x0000000023f2bb24       0x10 build/default/debug/_ext/411819097/ff.o
 .rodata.defopt.9566
                0x0000000023f2bb34       0x10 build/default/debug/_ext/411819097/ff.o
 .rodata.cst32.9565
                0x0000000023f2bb44       0x10 build/default/debug/_ext/411819097/ff.o
 .rodata.cst.9564
                0x0000000023f2bb54       0x10 build/default/debug/_ext/411819097/ff.o
 .rodata        0x0000000023f2bb64       0x90 build/default/debug/_ext/1360937237/main.o
 .rodata.USBTPList
                0x0000000023f2bbf4       0x10 build/default/debug/_ext/1171490990/usb_host_init_data.o
 .rodata.hcdTable
                0x0000000023f2bc04       0x10 build/default/debug/_ext/1171490990/usb_host_init_data.o
 .rodata.usbHostInitData
                0x0000000023f2bc14        0xc build/default/debug/_ext/1171490990/usb_host_init_data.o
                0x0000000023f2bc14                usbHostInitData
 .rodata        0x0000000023f2bc20       0x20 build/default/debug/_ext/1269487135/sys_fs_media_manager.o
 .rodata.gPartitionTypeOffset
                0x0000000023f2bc40        0x8 build/default/debug/_ext/1269487135/sys_fs_media_manager.o
 .rodata        0x0000000023f2bc48        0x8 build/default/debug/_ext/1269487135/sys_fs.o
 .rodata.uc437  0x0000000023f2bc50      0x100 build/default/debug/_ext/411819097/ffunicode.o
 .rodata.cvt1.8491
                0x0000000023f2bd50      0x1f4 build/default/debug/_ext/411819097/ffunicode.o
 .rodata.cvt2.8492
                0x0000000023f2bf44       0xbc build/default/debug/_ext/411819097/ffunicode.o
 .rodata        0x0000000023f2c000       0x16 c:/program files/microchip/xc32/v4.60/bin/bin/../../lib/gcc/pic32c/8.3.1/../../../../pic32c/lib/thumb/v7-a+simd/hard\libg-musl.a(__printf_core.o)
 .rodata.str1.1
                0x0000000023f2c016        0x8 c:/program files/microchip/xc32/v4.60/bin/bin/../../lib/gcc/pic32c/8.3.1/../../../../pic32c/lib/thumb/v7-a+simd/hard\libg-musl.a(__printf_core.o)
 *(.ARM.extab* .gnu.linkonce.armextab.*)
                0x0000000023f2c020                . = ALIGN (0x4)
 *fill*         0x0000000023f2c01e        0x2 
 *(.init)
 .init          0x0000000023f2c020        0x4 c:/program files/microchip/xc32/v4.60/bin/bin/../../lib/gcc/pic32c/8.3.1/thumb/v7-a+simd/hard/crti.o
                0x0000000023f2c020                _init
 .init          0x0000000023f2c024        0x8 c:/program files/microchip/xc32/v4.60/bin/bin/../../lib/gcc/pic32c/8.3.1/thumb/v7-a+simd/hard/crtn.o
                0x0000000023f2c02c                . = ALIGN (0x4)
                0x0000000023f2c02c                __preinit_array_start = .
 *(.preinit_array)
                0x0000000023f2c02c                __preinit_array_end = .
                0x0000000023f2c02c                . = ALIGN (0x4)
                0x0000000023f2c02c                __init_array_start = .
 *(SORT_BY_NAME(.init_array.*))
 *(.init_array)
 .init_array    0x0000000023f2c02c        0x4 c:/program files/microchip/xc32/v4.60/bin/bin/../../lib/gcc/pic32c/8.3.1/thumb/v7-a+simd/hard/crtbegin.o
                0x0000000023f2c030                __init_array_end = .
                0x0000000023f2c030                . = ALIGN (0x4)
 *crtbegin.o(.ctors)
 *(EXCLUDE_FILE(*crtend.o) .ctors)
 *(SORT_BY_NAME(.ctors.*))
 *crtend.o(.ctors)
                0x0000000023f2c030                . = ALIGN (0x4)
 *(.fini)
 .fini          0x0000000023f2c030        0x4 c:/program files/microchip/xc32/v4.60/bin/bin/../../lib/gcc/pic32c/8.3.1/thumb/v7-a+simd/hard/crti.o
                0x0000000023f2c030                _fini
 .fini          0x0000000023f2c034        0x8 c:/program files/microchip/xc32/v4.60/bin/bin/../../lib/gcc/pic32c/8.3.1/thumb/v7-a+simd/hard/crtn.o
                0x0000000023f2c03c                . = ALIGN (0x4)
                0x0000000023f2c03c                __fini_array_start = .
 *(.fini_array)
 .fini_array    0x0000000023f2c03c        0x4 c:/program files/microchip/xc32/v4.60/bin/bin/../../lib/gcc/pic32c/8.3.1/thumb/v7-a+simd/hard/crtbegin.o
 .fini_array.__stub
                0x0000000023f2c040        0x8 linker stubs
 *(SORT_BY_NAME(.fini_array.*))
                0x0000000023f2c048                __fini_array_end = .
 *crtbegin.o(.dtors)
 *(EXCLUDE_FILE(*crtend.o) .dtors)
 *(SORT_BY_NAME(.dtors.*))
 *crtend.o(.dtors)
 *(.dinit*)
                0x0000000023f2c048                . = ALIGN (0x4)

.data           0x0000000023f2c048      0x288
 *(.data .data.*)
 .data.gDrvUSBOHCIInterface
                0x0000000023f2c048       0x54 build/default/debug/_ext/1535495969/drv_usb_ohci.o
                0x0000000023f2c048                gDrvUSBOHCIInterface
 .data.drvUSBEHCIInit
                0x0000000023f2c09c       0x20 build/default/debug/_ext/1171490990/initialization.o
 .data.drvUSBOHCIInit
                0x0000000023f2c0bc       0x20 build/default/debug/_ext/1171490990/initialization.o
 .data.irqData  0x0000000023f2c0dc       0x20 build/default/debug/_ext/60163497/plib_aic.o
 .data.testbytes_num
                0x0000000023f2c0fc        0x4 build/default/debug/_ext/1360937237/app.o
                0x0000000023f2c0fc                testbytes_num
 .data.gUSBHostMSDSCSIMediaFunctions
                0x0000000023f2c100       0x30 build/default/debug/_ext/308758920/usb_host_scsi.o
 .data.gUSBHostMSDClientDriver
                0x0000000023f2c130       0x2c build/default/debug/_ext/308758920/usb_host_msd.o
                0x0000000023f2c130                gUSBHostMSDClientDriver
 .data.gDrvUSBEHCIInterface
                0x0000000023f2c15c       0x54 build/default/debug/_ext/1535495969/drv_usb_ehci.o
                0x0000000023f2c15c                gDrvUSBEHCIInterface
 .data.gSYSFSVolumeName
                0x0000000023f2c1b0       0x14 build/default/debug/_ext/1269487135/sys_fs_media_manager.o
 .data.gSYSFSMediaManagerObj
                0x0000000023f2c1c4       0x18 build/default/debug/_ext/1269487135/sys_fs_media_manager.o
 .data.gSysTimeTokenCount
                0x0000000023f2c1dc        0x2 build/default/debug/_ext/101884895/sys_time.o
 *fill*         0x0000000023f2c1de        0x2 
 .data          0x0000000023f2c1e0        0x4 c:/program files/microchip/xc32/v4.60/bin/bin/../../lib/gcc/pic32c/8.3.1/../../../../pic32c/lib/thumb/v7-a+simd/hard\liblmalloc-musl.a(lite_malloc.o)
 .data          0x0000000023f2c1e4       0x6c c:/program files/microchip/xc32/v4.60/bin/bin/../../lib/gcc/pic32c/8.3.1/../../../../pic32c/lib/thumb/v7-a+simd/hard\libg-musl.a(stdin.o)
                0x0000000023f2c1e4                __stdin_used
                0x0000000023f2c1e8                _stdin
 .data          0x0000000023f2c250       0x20 c:/program files/microchip/xc32/v4.60/bin/bin/../../lib/gcc/pic32c/8.3.1/../../../../pic32c/lib/thumb/v7-a+simd/hard\libg-musl.a(stdout.o)
                0x0000000023f2c26c                _stdout
 .data          0x0000000023f2c270       0x60 c:/program files/microchip/xc32/v4.60/bin/bin/../../lib/gcc/pic32c/8.3.1/../../../../pic32c/lib/thumb/v7-a+simd/hard\libg-musl.a(__stdout.o)
                0x0000000023f2c2d0                . = ALIGN (0x4)
                0x0000000023f2c2d0                _efixed = .
                [!provide]                        PROVIDE (__exidx_start = .)

.ARM.exidx      0x0000000023f2c2d0        0x8
 *(.ARM.exidx* .gnu.linkonce.armexidx.*)
 .ARM.exidx     0x0000000023f2c2d0        0x8 c:/program files/microchip/xc32/v4.60/bin/bin/../../lib/gcc/pic32c/8.3.1/thumb/v7-a+simd/hard\libgcc.a(_udivmoddi4.o)
                [!provide]                        PROVIDE (__exidx_end = .)
                0x0000000023f2c2d8                . = ALIGN (0x4)
                0x0000000023f2c2d8                _etext = .

.relocate       0x0000000000200000       0x3c load address 0x0000000023f2c2d8
                0x0000000000200000                . = ALIGN (0x4)
                0x0000000000200000                _srelocate = .
 *(.vectors .vectors.*)
 .vectors       0x0000000000200000       0x3c build/default/debug/_ext/1171490990/cstartup.o
 *(.ramfunc)
                0x000000000020003c                . = ALIGN (0x4)
                0x000000000020003c                _erelocate = .

.region_cache_aligned_const
                0x0000000023f2c314        0xc
                0x0000000023f2c320                . = ALIGN (0x20)
 *fill*         0x0000000023f2c314        0xc 
 *(.region_cache_aligned_const .region_cache_aligned_const.*)
                0x0000000023f2c320                . = ALIGN (0x20)

.region_sram    0x000000000020003c        0x0
                0x000000000020003c                . = ALIGN (0x4)
 *(.region_sram .region_sram.*)

.region_ram     0x0000000023f2c320        0x0
                0x0000000023f2c320                . = ALIGN (0x4)
 *(.region_ram .region_ram.*)

.region_nocache
                0x0000000020000000     0xa240
                0x0000000020000000                . = ALIGN (0x4)
 *(.region_nocache .region_nocache.*)
 .region_nocache.gDrvUSBOHCIHCCA
                0x0000000020000000       0xfc build/default/debug/_ext/1535495969/drv_usb_ohci.o
 *fill*         0x00000000200000fc        0x4 
 .region_nocache.gDrvUSBOHCIEndpointDescriptors
                0x0000000020000100      0x140 build/default/debug/_ext/1535495969/drv_usb_ohci.o
 .region_nocache.gDrvUSBOHCITransferDescriptor
                0x0000000020000240      0x280 build/default/debug/_ext/1535495969/drv_usb_ohci.o
 .region_nocache.gDrvUSBOHCIControlTransferDescriptor
                0x00000000200004c0      0x640 build/default/debug/_ext/1535495969/drv_usb_ohci.o
 .region_nocache.gDrvUSBOHCITransferBuffer
                0x0000000020000b00     0x2800 build/default/debug/_ext/1535495969/drv_usb_ohci.o
 .region_nocache.gDrvUSBOHCIControlTransferBuffer
                0x0000000020003300     0x2800 build/default/debug/_ext/1535495969/drv_usb_ohci.o
 *fill*         0x0000000020005b00      0x500 
 .region_nocache.gDrvUSBEHCIPeriodicFrameList
                0x0000000020006000     0x1000 build/default/debug/_ext/1535495969/drv_usb_ehci.o
 .region_nocache.gDrvUSBEHCIQueueHead
                0x0000000020007000      0x2c0 build/default/debug/_ext/1535495969/drv_usb_ehci.o
 .region_nocache.gDrvUSBEHCIQueueTransferDescriptor
                0x00000000200072c0      0x280 build/default/debug/_ext/1535495969/drv_usb_ehci.o
 .region_nocache.gDrvUSBEHCIControlTransferQTD
                0x0000000020007540      0x500 build/default/debug/_ext/1535495969/drv_usb_ehci.o
 .region_nocache.gDrvUSBEHCITransferBuffer
                0x0000000020007a40     0x1400 build/default/debug/_ext/1535495969/drv_usb_ehci.o
 .region_nocache.gDrvUSBEHCIControlTransferBuffer
                0x0000000020008e40     0x1400 build/default/debug/_ext/1535495969/drv_usb_ehci.o

.bss            0x0000000023f30000    0x8c778
                0x0000000023f30000                . = ALIGN (0x4)
                0x0000000023f30000                _szero = .
 *(.bss .bss.*)
 .bss           0x0000000023f30000       0x1c c:/program files/microchip/xc32/v4.60/bin/bin/../../lib/gcc/pic32c/8.3.1/thumb/v7-a+simd/hard/crtbegin.o
 .bss.gDrvUSBOHCIObj
                0x0000000023f3001c       0x8c build/default/debug/_ext/1535495969/drv_usb_ohci.o
 .bss.sysObj    0x0000000023f300a8       0x10 build/default/debug/_ext/1171490990/initialization.o
                0x0000000023f300a8                sysObj
 .bss.TC0_CH0_CallbackObj
                0x0000000023f300b8        0x8 build/default/debug/_ext/829342655/plib_tc0.o
 .bss.gUSBHostObj
                0x0000000023f300c0       0x14 build/default/debug/_ext/308758920/usb_host.o
 .bss.gUSBHostBusList
                0x0000000023f300d4       0x90 build/default/debug/_ext/308758920/usb_host.o
 .bss.gUSBHostDeviceList
                0x0000000023f30164      0x4ec build/default/debug/_ext/308758920/usb_host.o
 .bss.gUSBHostPipeObj
                0x0000000023f30650       0xa0 build/default/debug/_ext/308758920/usb_host.o
 .bss.gUSBHostTransferObj
                0x0000000023f306f0      0x280 build/default/debug/_ext/308758920/usb_host.o
 .bss.bmpOrig   0x0000000023f30970    0x41ee6 build/default/debug/_ext/1360937237/app.o
                0x0000000023f30970                bmpOrig
 *fill*         0x0000000023f72856        0x2 
 .bss.fb0       0x0000000023f72858    0x41eb0 build/default/debug/_ext/1360937237/app.o
                0x0000000023f72858                fb0
 .bss.width     0x0000000023fb4708        0x4 build/default/debug/_ext/1360937237/app.o
                0x0000000023fb4708                width
 .bss.height    0x0000000023fb470c        0x4 build/default/debug/_ext/1360937237/app.o
                0x0000000023fb470c                height
 *fill*         0x0000000023fb4710       0x10 
 .bss.appData   0x0000000023fb4720      0x418 build/default/debug/_ext/1360937237/app.o
                0x0000000023fb4720                appData
 *fill*         0x0000000023fb4b38        0x8 
 .bss.FATFSVolume
                0x0000000023fb4b40      0x2a0 build/default/debug/_ext/1269487135/sys_fs_fat_interface.o
 .bss.FATFSFileObject
                0x0000000023fb4de0      0x280 build/default/debug/_ext/1269487135/sys_fs_fat_interface.o
 .bss.FATFSDirObject
                0x0000000023fb5060       0x60 build/default/debug/_ext/1269487135/sys_fs_fat_interface.o
 .bss.startupflag
                0x0000000023fb50c0        0x1 build/default/debug/_ext/1269487135/sys_fs_fat_interface.o
 *fill*         0x0000000023fb50c1        0x3 
 .bss.FatFs     0x0000000023fb50c4        0x4 build/default/debug/_ext/411819097/ff.o
 .bss.Fsid      0x0000000023fb50c8        0x2 build/default/debug/_ext/411819097/ff.o
 .bss.CurrVol   0x0000000023fb50ca        0x1 build/default/debug/_ext/411819097/ff.o
 *fill*         0x0000000023fb50cb        0x1 
 .bss.Files     0x0000000023fb50cc       0x10 build/default/debug/_ext/411819097/ff.o
 .bss.DirBuf    0x0000000023fb50dc      0x260 build/default/debug/_ext/411819097/ff.o
 .bss.LfnBuf    0x0000000023fb533c      0x200 build/default/debug/_ext/411819097/ff.o
 .bss.gUSBHostSCSIObj
                0x0000000023fb553c       0xc8 build/default/debug/_ext/308758920/usb_host_scsi.o
 *fill*         0x0000000023fb5604       0x1c 
 .bss.gUSBSCSIBuffer
                0x0000000023fb5620      0x100 build/default/debug/_ext/308758920/usb_host_scsi.o
 .bss.gUSBHostSCSIAttachListener
                0x0000000023fb5720        0xc build/default/debug/_ext/308758920/usb_host_scsi.o
 .bss.gUSBHostMSDInstance
                0x0000000023fb572c       0x64 build/default/debug/_ext/308758920/usb_host_msd.o
 *fill*         0x0000000023fb5790       0x10 
 .bss.gUSBHostMSDCBW
                0x0000000023fb57a0       0x20 build/default/debug/_ext/308758920/usb_host_msd.o
 .bss.gUSBHostMSDCSW
                0x0000000023fb57c0       0x10 build/default/debug/_ext/308758920/usb_host_msd.o
 .bss.gDrvUSBEHCIObj
                0x0000000023fb57d0       0xcc build/default/debug/_ext/1535495969/drv_usb_ehci.o
 .bss.gSYSFSMediaObject
                0x0000000023fb589c       0x28 build/default/debug/_ext/1269487135/sys_fs_media_manager.o
 .bss.gSYSFSVolumeObject
                0x0000000023fb58c4       0x1c build/default/debug/_ext/1269487135/sys_fs_media_manager.o
 .bss.gSYSFSEventHandler
                0x0000000023fb58e0        0x8 build/default/debug/_ext/1269487135/sys_fs_media_manager.o
 .bss.gNumOfFSClients
                0x0000000023fb58e8        0x1 build/default/debug/_ext/1269487135/sys_fs_media_manager.o
 *fill*         0x0000000023fb58e9       0x17 
 .bss.gSYSFSMediaBlockBuffer
                0x0000000023fb5900      0x800 build/default/debug/_ext/1269487135/sys_fs_media_manager.o
 .bss.gSYSFSMediaBuffer
                0x0000000023fb6100      0x200 build/default/debug/_ext/1269487135/sys_fs_media_manager.o
 .bss.VolToPart
                0x0000000023fb6300        0x2 build/default/debug/_ext/1269487135/sys_fs_media_manager.o
                0x0000000023fb6300                VolToPart
 *fill*         0x0000000023fb6302        0x2 
 .bss.spuriousEventCount.11500
                0x0000000023fb6304        0x4 build/default/debug/_ext/1171490990/interrupts.o
 .bss.gSYSFSObj
                0x0000000023fb6308        0x8 build/default/debug/_ext/1269487135/sys_fs.o
 .bss.gSYSFSMountPoint
                0x0000000023fb6310       0x10 build/default/debug/_ext/1269487135/sys_fs.o
 .bss.gSYSFSCurrentMountPoint
                0x0000000023fb6320        0x8 build/default/debug/_ext/1269487135/sys_fs.o
 *fill*         0x0000000023fb6328       0x18 
 .bss.gSYSFSFileObj
                0x0000000023fb6340      0x120 build/default/debug/_ext/1269487135/sys_fs.o
 .bss.gSYSFSDirObj
                0x0000000023fb6460       0x10 build/default/debug/_ext/1269487135/sys_fs.o
 .bss.gSysFsMutex
                0x0000000023fb6470        0x1 build/default/debug/_ext/1269487135/sys_fs.o
 .bss.errorValue
                0x0000000023fb6471        0x1 build/default/debug/_ext/1269487135/sys_fs.o
 *fill*         0x0000000023fb6472     0x1b8e 
 .bss.tlb       0x0000000023fb8000     0x4000 build/default/debug/_ext/60175171/plib_mmu.o
 .bss.gSystemCounterObj
                0x0000000023fbc000       0x40 build/default/debug/_ext/101884895/sys_time.o
 .bss.timers    0x0000000023fbc040       0xa0 build/default/debug/_ext/101884895/sys_time.o
 .bss.gSysFsDiskData
                0x0000000023fbc0e0      0x220 build/default/debug/_ext/565198302/diskio.o
 .bss           0x0000000023fbc300        0x4 c:/program files/microchip/xc32/v4.60/bin/bin/../../lib/gcc/pic32c/8.3.1/../../../../pic32c/lib/thumb/v7-a+simd/hard\liblmalloc-musl.a(lite_free.o)
                0x0000000023fbc300                __freelist
 .bss           0x0000000023fbc304        0x4 c:/program files/microchip/xc32/v4.60/bin/bin/../../lib/gcc/pic32c/8.3.1/../../../../pic32c/lib/thumb/v7-a+simd/hard\libg-musl.a(__errno_location.o)
                0x0000000023fbc304                __errno_val
 .bss           0x0000000023fbc308       0x50 c:/program files/microchip/xc32/v4.60/bin/bin/../../lib/gcc/pic32c/8.3.1/../../../../pic32c/lib/thumb/v7-a+simd/hard\libg-musl.a(libc.o)
                0x0000000023fbc308                __progname_full
                0x0000000023fbc308                program_invocation_name
                0x0000000023fbc30c                program_invocation_short_name
                0x0000000023fbc30c                __progname
                0x0000000023fbc310                __sysinfo
                0x0000000023fbc314                __hwcap
                0x0000000023fbc318                __libc
 .bss           0x0000000023fbc358      0x408 c:/program files/microchip/xc32/v4.60/bin/bin/../../lib/gcc/pic32c/8.3.1/../../../../pic32c/lib/thumb/v7-a+simd/hard\libg-musl.a(stdin.o)
 .bss           0x0000000023fbc760        0x8 c:/program files/microchip/xc32/v4.60/bin/bin/../../lib/gcc/pic32c/8.3.1/../../../../pic32c/lib/thumb/v7-a+simd/hard\libg-musl.a(stdout.o)
                0x0000000023fbc764                __stdout_used
 .bss           0x0000000023fbc768        0x4 c:/program files/microchip/xc32/v4.60/bin/bin/../../lib/gcc/pic32c/8.3.1/../../../../pic32c/lib/thumb/v7-a+simd/hard\libg-musl.a(__environ.o)
                0x0000000023fbc768                __environ
                0x0000000023fbc768                environ
                0x0000000023fbc768                ___environ
                0x0000000023fbc768                _environ
 .bss           0x0000000023fbc76c        0xc c:/program files/microchip/xc32/v4.60/bin/bin/../../lib/gcc/pic32c/8.3.1/../../../../pic32c/lib/thumb/v7-a+simd/hard\libpic32c.a(sbrk.o)
                0x0000000023fbc770                _maxbrk
                0x0000000023fbc774                _minbrk
 *(COMMON)
                0x0000000023fbc778                . = ALIGN (0x4)
                0x0000000023fbc778                _ezero = .

.region_cache_aligned
                0x0000000023fbc778        0x8
                0x0000000023fbc780                . = ALIGN (0x20)
 *fill*         0x0000000023fbc778        0x8 
 *(.region_cache_aligned .region_cache_aligned.*)
                0x0000000023fbc780                . = ALIGN (0x20)

.stacks         0x0000000023fbc780     0x2140
                0x0000000023fbc7e0                . = (. + IRQ_STACK_SIZE)
 *fill*         0x0000000023fbc780       0x60 
                0x0000000023fbc7e0                . = ALIGN (0x8)
                0x0000000023fbc7e0                _irqstack = .
                0x0000000023fbc840                . = (. + FIQ_STACK_SIZE)
 *fill*         0x0000000023fbc7e0       0x60 
                0x0000000023fbc840                . = ALIGN (0x8)
                0x0000000023fbc840                _fiqstack = .
                0x0000000023fbc880                . = (. + ABT_STACK_SIZE)
 *fill*         0x0000000023fbc840       0x40 
                0x0000000023fbc880                . = ALIGN (0x8)
                0x0000000023fbc880                _abtstack = .
                0x0000000023fbc8c0                . = (. + UND_STACK_SIZE)
 *fill*         0x0000000023fbc880       0x40 
                0x0000000023fbc8c0                . = ALIGN (0x8)
                0x0000000023fbc8c0                _undstack = .
                0x0000000023fbd8c0                . = (. + SVC_STACK_SIZE)
 *fill*         0x0000000023fbc8c0     0x1000 
                0x0000000023fbd8c0                . = ALIGN (0x8)
                0x0000000023fbd8c0                _svcstack = .
                0x0000000023fbe8c0                . = (. + C_STACK_SIZE)
 *fill*         0x0000000023fbd8c0     0x1000 
                0x0000000023fbe8c0                . = ALIGN (0x8)
                0x0000000023fbe8c0                _cstack = .
                0x0000000023fbe8c0                _end = .
                0x0000000023fbe8c0                _ramcode_lma = _end

.ramcode        0x000000000020003c        0x0 load address 0x0000000023fbe8c0
                0x000000000020003c                _sramcode = .
 *(.ramcode_section .ramcode_section.*)
                0x000000000020003c                _eramcode = .
                0x0000000023fbe8c0                _ramdata_lma = ((_end + _eramcode) - _sramcode)

.ramdata        0x000000000020003c        0x0 load address 0x0000000023fbe8c0
                0x000000000020003c                _sramdata = .
 *(.ramdata_section .ramdata_section.*)
                0x000000000020003c                _eramdata = .
                0x0000000000000001                __ICD2RAM = 0x1
                0x0000000000000001                __MPLAB_DEBUG = 0x1
                0x0000000000000001                __DEBUG = 0x1
                0x0000000000000200                _min_heap_size = 0x200
START GROUP
LOAD c:/program files/microchip/xc32/v4.60/bin/bin/../../lib/gcc/pic32c/8.3.1/../../../../pic32c/lib/thumb/v7-a+simd/hard\libpic32c.a
LOAD c:/program files/microchip/xc32/v4.60/bin/bin/../../lib/gcc/pic32c/8.3.1/thumb/v7-a+simd/hard\libgcc.a
LOAD c:/program files/microchip/xc32/v4.60/bin/bin/../../lib/gcc/pic32c/8.3.1/../../../../pic32c/lib/thumb/v7-a+simd/hard\libc-size-musl.a
LOAD c:/program files/microchip/xc32/v4.60/bin/bin/../../lib/gcc/pic32c/8.3.1/../../../../pic32c/lib/thumb/v7-a+simd/hard\liblmalloc-musl.a
LOAD c:/program files/microchip/xc32/v4.60/bin/bin/../../lib/gcc/pic32c/8.3.1/../../../../pic32c/lib/thumb/v7-a+simd/hard\libm-musl.a
LOAD c:/program files/microchip/xc32/v4.60/bin/bin/../../lib/gcc/pic32c/8.3.1/../../../../pic32c/lib/thumb/v7-a+simd/hard\libg-musl.a
LOAD c:/program files/microchip/xc32/v4.60/bin/bin/../../lib/gcc/pic32c/8.3.1/../../../../pic32c/lib/thumb/v7-a+simd/hard\libc-musl.a
LOAD c:/program files/microchip/xc32/v4.60/bin/bin/../../lib/gcc/pic32c/8.3.1/../../../../pic32c/lib/thumb/v7-a+simd/hard\libm-musl.a
END GROUP
LOAD c:/program files/microchip/xc32/v4.60/bin/bin/../../lib/gcc/pic32c/8.3.1/thumb/v7-a+simd/hard/crtend.o
LOAD c:/program files/microchip/xc32/v4.60/bin/bin/../../lib/gcc/pic32c/8.3.1/thumb/v7-a+simd/hard/crtn.o
OUTPUT(dist/default/debug/coco_ssd_MobilenetV1quant_300_300.X.debug.elf elf32-littlearm)
LOAD stack

.ARM.attributes
                0x0000000000000000       0x37
 .ARM.attributes
                0x0000000000000000       0x1f c:/program files/microchip/xc32/v4.60/bin/bin/../../lib/gcc/pic32c/8.3.1/thumb/v7-a+simd/hard/crti.o
 .ARM.attributes
                0x000000000000001f       0x35 c:/program files/microchip/xc32/v4.60/bin/bin/../../lib/gcc/pic32c/8.3.1/thumb/v7-a+simd/hard/crtbegin.o
 .ARM.attributes
                0x0000000000000054       0x39 build/default/debug/_ext/1881668453/sys_int.o
 .ARM.attributes
                0x000000000000008d       0x39 build/default/debug/_ext/1434821282/bsp.o
 .ARM.attributes
                0x00000000000000c6       0x25 build/default/debug/_ext/1171490990/cstartup.o
 .ARM.attributes
                0x00000000000000eb       0x39 build/default/debug/_ext/1535495969/drv_usb_ohci.o
 .ARM.attributes
                0x0000000000000124       0x39 build/default/debug/_ext/1171490990/initialization.o
 .ARM.attributes
                0x000000000000015d       0x39 build/default/debug/_ext/1171490990/tasks.o
 .ARM.attributes
                0x0000000000000196       0x39 build/default/debug/_ext/60163497/plib_aic.o
 .ARM.attributes
                0x00000000000001cf       0x39 build/default/debug/_ext/1666157715/plib_matrix.o
 .ARM.attributes
                0x0000000000000208       0x39 build/default/debug/_ext/829342655/plib_tc0.o
 .ARM.attributes
                0x0000000000000241       0x39 build/default/debug/_ext/308758920/usb_host.o
 .ARM.attributes
                0x000000000000027a       0x39 build/default/debug/_ext/1360937237/app.o
 .ARM.attributes
                0x00000000000002b3       0x39 build/default/debug/_ext/1269487135/sys_fs_fat_interface.o
 .ARM.attributes
                0x00000000000002ec       0x39 build/default/debug/_ext/411819097/ff.o
 .ARM.attributes
                0x0000000000000325       0x39 build/default/debug/_ext/1360937237/main.o
 .ARM.attributes
                0x000000000000035e       0x39 build/default/debug/_ext/308758920/usb_host_scsi.o
 .ARM.attributes
                0x0000000000000397       0x39 build/default/debug/_ext/308758920/usb_host_msd.o
 .ARM.attributes
                0x00000000000003d0       0x39 build/default/debug/_ext/1535495969/drv_usb_ehci.o
 .ARM.attributes
                0x0000000000000409       0x3f build/default/debug/_ext/1171490990/usb_host_init_data.o
 .ARM.attributes
                0x0000000000000448       0x39 build/default/debug/_ext/1171490990/fault_handlers.o
 .ARM.attributes
                0x0000000000000481       0x39 build/default/debug/_ext/60177924/plib_pio.o
 .ARM.attributes
                0x00000000000004ba       0x39 build/default/debug/_ext/1269487135/sys_fs_media_manager.o
 .ARM.attributes
                0x00000000000004f3       0x39 build/default/debug/_ext/1171490990/interrupts.o
 .ARM.attributes
                0x000000000000052c       0x39 build/default/debug/_ext/1269487135/sys_fs.o
 .ARM.attributes
                0x0000000000000565       0x39 build/default/debug/_ext/163028504/xc32_monitor.o
 .ARM.attributes
                0x000000000000059e       0x39 build/default/debug/_ext/411819097/ffunicode.o
 .ARM.attributes
                0x00000000000005d7       0x39 build/default/debug/_ext/60165520/plib_clk.o
 .ARM.attributes
                0x0000000000000610       0x39 build/default/debug/_ext/60175171/plib_mmu.o
 .ARM.attributes
                0x0000000000000649       0x39 build/default/debug/_ext/101884895/sys_time.o
 .ARM.attributes
                0x0000000000000682       0x39 build/default/debug/_ext/565198302/diskio.o
 .ARM.attributes
                0x00000000000006bb       0x39 build/default/debug/_ext/1865657120/plib_uart1.o
 .ARM.attributes
                0x00000000000006f4       0x1f c:/program files/microchip/xc32/v4.60/bin/bin/../../lib/gcc/pic32c/8.3.1/thumb/v7-a+simd/hard\libgcc.a(_udivsi3.o)
 .ARM.attributes
                0x0000000000000713       0x1f c:/program files/microchip/xc32/v4.60/bin/bin/../../lib/gcc/pic32c/8.3.1/thumb/v7-a+simd/hard\libgcc.a(_divsi3.o)
 .ARM.attributes
                0x0000000000000732       0x1f c:/program files/microchip/xc32/v4.60/bin/bin/../../lib/gcc/pic32c/8.3.1/thumb/v7-a+simd/hard\libgcc.a(_dvmd_tls.o)
 .ARM.attributes
                0x0000000000000751       0x1f c:/program files/microchip/xc32/v4.60/bin/bin/../../lib/gcc/pic32c/8.3.1/thumb/v7-a+simd/hard\libgcc.a(_aeabi_uldivmod.o)
 .ARM.attributes
                0x0000000000000770       0x35 c:/program files/microchip/xc32/v4.60/bin/bin/../../lib/gcc/pic32c/8.3.1/thumb/v7-a+simd/hard\libgcc.a(_udivmoddi4.o)
 .ARM.attributes
                0x00000000000007a5       0x37 c:/program files/microchip/xc32/v4.60/bin/bin/../../lib/gcc/pic32c/8.3.1/../../../../pic32c/lib/thumb/v7-a+simd/hard\libc-size-musl.a(memcmp.o)
 .ARM.attributes
                0x00000000000007dc       0x37 c:/program files/microchip/xc32/v4.60/bin/bin/../../lib/gcc/pic32c/8.3.1/../../../../pic32c/lib/thumb/v7-a+simd/hard\libc-size-musl.a(memcpy.o)
 .ARM.attributes
                0x0000000000000813       0x37 c:/program files/microchip/xc32/v4.60/bin/bin/../../lib/gcc/pic32c/8.3.1/../../../../pic32c/lib/thumb/v7-a+simd/hard\libc-size-musl.a(memmove.o)
 .ARM.attributes
                0x000000000000084a       0x37 c:/program files/microchip/xc32/v4.60/bin/bin/../../lib/gcc/pic32c/8.3.1/../../../../pic32c/lib/thumb/v7-a+simd/hard\libc-size-musl.a(memset.o)
 .ARM.attributes
                0x0000000000000881       0x37 c:/program files/microchip/xc32/v4.60/bin/bin/../../lib/gcc/pic32c/8.3.1/../../../../pic32c/lib/thumb/v7-a+simd/hard\libc-size-musl.a(strlen.o)
 .ARM.attributes
                0x00000000000008b8       0x37 c:/program files/microchip/xc32/v4.60/bin/bin/../../lib/gcc/pic32c/8.3.1/../../../../pic32c/lib/thumb/v7-a+simd/hard\libc-size-musl.a(strchr.o)
 .ARM.attributes
                0x00000000000008ef       0x37 c:/program files/microchip/xc32/v4.60/bin/bin/../../lib/gcc/pic32c/8.3.1/../../../../pic32c/lib/thumb/v7-a+simd/hard\libc-size-musl.a(strchrnul.o)
 .ARM.attributes
                0x0000000000000926       0x37 c:/program files/microchip/xc32/v4.60/bin/bin/../../lib/gcc/pic32c/8.3.1/../../../../pic32c/lib/thumb/v7-a+simd/hard\libc-size-musl.a(strcmp.o)
 .ARM.attributes
                0x000000000000095d       0x37 c:/program files/microchip/xc32/v4.60/bin/bin/../../lib/gcc/pic32c/8.3.1/../../../../pic32c/lib/thumb/v7-a+simd/hard\libc-size-musl.a(strncmp.o)
 .ARM.attributes
                0x0000000000000994       0x37 c:/program files/microchip/xc32/v4.60/bin/bin/../../lib/gcc/pic32c/8.3.1/../../../../pic32c/lib/thumb/v7-a+simd/hard\liblmalloc-musl.a(lite_free.o)
 .ARM.attributes
                0x00000000000009cb       0x37 c:/program files/microchip/xc32/v4.60/bin/bin/../../lib/gcc/pic32c/8.3.1/../../../../pic32c/lib/thumb/v7-a+simd/hard\liblmalloc-musl.a(lite_malloc.o)
 .ARM.attributes
                0x0000000000000a02       0x37 c:/program files/microchip/xc32/v4.60/bin/bin/../../lib/gcc/pic32c/8.3.1/../../../../pic32c/lib/thumb/v7-a+simd/hard\libg-musl.a(__libc_start_main.o)
 .ARM.attributes
                0x0000000000000a39       0x33 c:/program files/microchip/xc32/v4.60/bin/bin/../../lib/gcc/pic32c/8.3.1/../../../../pic32c/lib/thumb/v7-a+simd/hard\libg-musl.a(__errno_location.o)
 .ARM.attributes
                0x0000000000000a6c       0x33 c:/program files/microchip/xc32/v4.60/bin/bin/../../lib/gcc/pic32c/8.3.1/../../../../pic32c/lib/thumb/v7-a+simd/hard\libg-musl.a(libc.o)
 .ARM.attributes
                0x0000000000000a9f       0x37 c:/program files/microchip/xc32/v4.60/bin/bin/../../lib/gcc/pic32c/8.3.1/../../../../pic32c/lib/thumb/v7-a+simd/hard\libg-musl.a(expand_heap.o)
 .ARM.attributes
                0x0000000000000ad6       0x37 c:/program files/microchip/xc32/v4.60/bin/bin/../../lib/gcc/pic32c/8.3.1/../../../../pic32c/lib/thumb/v7-a+simd/hard\libg-musl.a(__sio_printf_dn.o)
 .ARM.attributes
                0x0000000000000b0d       0x37 c:/program files/microchip/xc32/v4.60/bin/bin/../../lib/gcc/pic32c/8.3.1/../../../../pic32c/lib/thumb/v7-a+simd/hard\libg-musl.a(__fmt_d.o)
 .ARM.attributes
                0x0000000000000b44       0x37 c:/program files/microchip/xc32/v4.60/bin/bin/../../lib/gcc/pic32c/8.3.1/../../../../pic32c/lib/thumb/v7-a+simd/hard\libg-musl.a(__pop_int.o)
 .ARM.attributes
                0x0000000000000b7b       0x37 c:/program files/microchip/xc32/v4.60/bin/bin/../../lib/gcc/pic32c/8.3.1/../../../../pic32c/lib/thumb/v7-a+simd/hard\libg-musl.a(__pop_ptr.o)
 .ARM.attributes
                0x0000000000000bb2       0x37 c:/program files/microchip/xc32/v4.60/bin/bin/../../lib/gcc/pic32c/8.3.1/../../../../pic32c/lib/thumb/v7-a+simd/hard\libg-musl.a(__printf_core.o)
 .ARM.attributes
                0x0000000000000be9       0x37 c:/program files/microchip/xc32/v4.60/bin/bin/../../lib/gcc/pic32c/8.3.1/../../../../pic32c/lib/thumb/v7-a+simd/hard\libg-musl.a(stdin.o)
 .ARM.attributes
                0x0000000000000c20       0x37 c:/program files/microchip/xc32/v4.60/bin/bin/../../lib/gcc/pic32c/8.3.1/../../../../pic32c/lib/thumb/v7-a+simd/hard\libg-musl.a(stdout.o)
 .ARM.attributes
                0x0000000000000c57       0x37 c:/program files/microchip/xc32/v4.60/bin/bin/../../lib/gcc/pic32c/8.3.1/../../../../pic32c/lib/thumb/v7-a+simd/hard\libg-musl.a(puts.o)
 .ARM.attributes
                0x0000000000000c8e       0x37 c:/program files/microchip/xc32/v4.60/bin/bin/../../lib/gcc/pic32c/8.3.1/../../../../pic32c/lib/thumb/v7-a+simd/hard\libg-musl.a(setbuf.o)
 .ARM.attributes
                0x0000000000000cc5       0x37 c:/program files/microchip/xc32/v4.60/bin/bin/../../lib/gcc/pic32c/8.3.1/../../../../pic32c/lib/thumb/v7-a+simd/hard\libg-musl.a(atoi.o)
 .ARM.attributes
                0x0000000000000cfc       0x37 c:/program files/microchip/xc32/v4.60/bin/bin/../../lib/gcc/pic32c/8.3.1/../../../../pic32c/lib/thumb/v7-a+simd/hard\libg-musl.a(tolower.o)
 .ARM.attributes
                0x0000000000000d33       0x33 c:/program files/microchip/xc32/v4.60/bin/bin/../../lib/gcc/pic32c/8.3.1/../../../../pic32c/lib/thumb/v7-a+simd/hard\libg-musl.a(__environ.o)
 .ARM.attributes
                0x0000000000000d66       0x37 c:/program files/microchip/xc32/v4.60/bin/bin/../../lib/gcc/pic32c/8.3.1/../../../../pic32c/lib/thumb/v7-a+simd/hard\libg-musl.a(__int_vfprintf.o)
 .ARM.attributes
                0x0000000000000d9d       0x37 c:/program files/microchip/xc32/v4.60/bin/bin/../../lib/gcc/pic32c/8.3.1/../../../../pic32c/lib/thumb/v7-a+simd/hard\libg-musl.a(fputs.o)
 .ARM.attributes
                0x0000000000000dd4       0x37 c:/program files/microchip/xc32/v4.60/bin/bin/../../lib/gcc/pic32c/8.3.1/../../../../pic32c/lib/thumb/v7-a+simd/hard\libg-musl.a(__cvt_u.o)
 .ARM.attributes
                0x0000000000000e0b       0x37 c:/program files/microchip/xc32/v4.60/bin/bin/../../lib/gcc/pic32c/8.3.1/../../../../pic32c/lib/thumb/v7-a+simd/hard\libg-musl.a(__pop_float.o)
 .ARM.attributes
                0x0000000000000e42       0x37 c:/program files/microchip/xc32/v4.60/bin/bin/../../lib/gcc/pic32c/8.3.1/../../../../pic32c/lib/thumb/v7-a+simd/hard\libg-musl.a(__stdio_read.o)
 .ARM.attributes
                0x0000000000000e79       0x37 c:/program files/microchip/xc32/v4.60/bin/bin/../../lib/gcc/pic32c/8.3.1/../../../../pic32c/lib/thumb/v7-a+simd/hard\libg-musl.a(__towrite_rw.o)
 .ARM.attributes
                0x0000000000000eb0       0x37 c:/program files/microchip/xc32/v4.60/bin/bin/../../lib/gcc/pic32c/8.3.1/../../../../pic32c/lib/thumb/v7-a+simd/hard\libg-musl.a(fwrite.o)
 .ARM.attributes
                0x0000000000000ee7       0x37 c:/program files/microchip/xc32/v4.60/bin/bin/../../lib/gcc/pic32c/8.3.1/../../../../pic32c/lib/thumb/v7-a+simd/hard\libg-musl.a(putc.o)
 .ARM.attributes
                0x0000000000000f1e       0x37 c:/program files/microchip/xc32/v4.60/bin/bin/../../lib/gcc/pic32c/8.3.1/../../../../pic32c/lib/thumb/v7-a+simd/hard\libg-musl.a(setvbuf.o)
 .ARM.attributes
                0x0000000000000f55       0x37 c:/program files/microchip/xc32/v4.60/bin/bin/../../lib/gcc/pic32c/8.3.1/../../../../pic32c/lib/thumb/v7-a+simd/hard\libg-musl.a(readv.o)
 .ARM.attributes
                0x0000000000000f8c       0x37 c:/program files/microchip/xc32/v4.60/bin/bin/../../lib/gcc/pic32c/8.3.1/../../../../pic32c/lib/thumb/v7-a+simd/hard\libg-musl.a(__init_stdio.o)
 .ARM.attributes
                0x0000000000000fc3       0x37 c:/program files/microchip/xc32/v4.60/bin/bin/../../lib/gcc/pic32c/8.3.1/../../../../pic32c/lib/thumb/v7-a+simd/hard\libg-musl.a(__out.o)
 .ARM.attributes
                0x0000000000000ffa       0x37 c:/program files/microchip/xc32/v4.60/bin/bin/../../lib/gcc/pic32c/8.3.1/../../../../pic32c/lib/thumb/v7-a+simd/hard\libg-musl.a(__putc.o)
 .ARM.attributes
                0x0000000000001031       0x37 c:/program files/microchip/xc32/v4.60/bin/bin/../../lib/gcc/pic32c/8.3.1/../../../../pic32c/lib/thumb/v7-a+simd/hard\libg-musl.a(__stderr.o)
 .ARM.attributes
                0x0000000000001068       0x37 c:/program files/microchip/xc32/v4.60/bin/bin/../../lib/gcc/pic32c/8.3.1/../../../../pic32c/lib/thumb/v7-a+simd/hard\libg-musl.a(__stdio_close.o)
 .ARM.attributes
                0x000000000000109f       0x37 c:/program files/microchip/xc32/v4.60/bin/bin/../../lib/gcc/pic32c/8.3.1/../../../../pic32c/lib/thumb/v7-a+simd/hard\libg-musl.a(__stdio_write.o)
 .ARM.attributes
                0x00000000000010d6       0x37 c:/program files/microchip/xc32/v4.60/bin/bin/../../lib/gcc/pic32c/8.3.1/../../../../pic32c/lib/thumb/v7-a+simd/hard\libg-musl.a(__stdout.o)
 .ARM.attributes
                0x000000000000110d       0x37 c:/program files/microchip/xc32/v4.60/bin/bin/../../lib/gcc/pic32c/8.3.1/../../../../pic32c/lib/thumb/v7-a+simd/hard\libg-musl.a(__towrite.o)
 .ARM.attributes
                0x0000000000001144       0x37 c:/program files/microchip/xc32/v4.60/bin/bin/../../lib/gcc/pic32c/8.3.1/../../../../pic32c/lib/thumb/v7-a+simd/hard\libg-musl.a(writev.o)
 .ARM.attributes
                0x000000000000117b       0x37 c:/program files/microchip/xc32/v4.60/bin/bin/../../lib/gcc/pic32c/8.3.1/../../../../pic32c/lib/thumb/v7-a+simd/hard\libg-musl.a(__overflow.o)
 .ARM.attributes
                0x00000000000011b2       0x37 c:/program files/microchip/xc32/v4.60/bin/bin/../../lib/gcc/pic32c/8.3.1/../../../../pic32c/lib/thumb/v7-a+simd/hard\libg-musl.a(__fwrite.o)
 .ARM.attributes
                0x00000000000011e9       0x35 c:/program files/microchip/xc32/v4.60/bin/bin/../../lib/gcc/pic32c/8.3.1/../../../../pic32c/lib/thumb/v7-a+simd/hard\libpic32c.a(close.o)
 .ARM.attributes
                0x000000000000121e       0x35 c:/program files/microchip/xc32/v4.60/bin/bin/../../lib/gcc/pic32c/8.3.1/../../../../pic32c/lib/thumb/v7-a+simd/hard\libpic32c.a(lseek.o)
 .ARM.attributes
                0x0000000000001253       0x35 c:/program files/microchip/xc32/v4.60/bin/bin/../../lib/gcc/pic32c/8.3.1/../../../../pic32c/lib/thumb/v7-a+simd/hard\libpic32c.a(sbrk.o)
 .ARM.attributes
                0x0000000000001288       0x1f c:/program files/microchip/xc32/v4.60/bin/bin/../../lib/gcc/pic32c/8.3.1/thumb/v7-a+simd/hard/crtn.o

.comment        0x0000000000000000       0x2b
 .comment       0x0000000000000000       0x2b c:/program files/microchip/xc32/v4.60/bin/bin/../../lib/gcc/pic32c/8.3.1/thumb/v7-a+simd/hard/crtbegin.o
                                         0x2c (size before relaxing)
 .comment       0x000000000000002b       0x2c build/default/debug/_ext/1881668453/sys_int.o
 .comment       0x000000000000002b       0x2c build/default/debug/_ext/1434821282/bsp.o
 .comment       0x000000000000002b       0x2c build/default/debug/_ext/1535495969/drv_usb_ohci.o
 .comment       0x000000000000002b       0x2c build/default/debug/_ext/1171490990/initialization.o
 .comment       0x000000000000002b       0x2c build/default/debug/_ext/1171490990/tasks.o
 .comment       0x000000000000002b       0x2c build/default/debug/_ext/60163497/plib_aic.o
 .comment       0x000000000000002b       0x2c build/default/debug/_ext/1666157715/plib_matrix.o
 .comment       0x000000000000002b       0x2c build/default/debug/_ext/829342655/plib_tc0.o
 .comment       0x000000000000002b       0x2c build/default/debug/_ext/308758920/usb_host.o
 .comment       0x000000000000002b       0x2c build/default/debug/_ext/1360937237/app.o
 .comment       0x000000000000002b       0x2c build/default/debug/_ext/1269487135/sys_fs_fat_interface.o
 .comment       0x000000000000002b       0x2c build/default/debug/_ext/411819097/ff.o
 .comment       0x000000000000002b       0x2c build/default/debug/_ext/1360937237/main.o
 .comment       0x000000000000002b       0x2c build/default/debug/_ext/308758920/usb_host_scsi.o
 .comment       0x000000000000002b       0x2c build/default/debug/_ext/308758920/usb_host_msd.o
 .comment       0x000000000000002b       0x2c build/default/debug/_ext/1535495969/drv_usb_ehci.o
 .comment       0x000000000000002b       0x2c build/default/debug/_ext/1171490990/usb_host_init_data.o
 .comment       0x000000000000002b       0x2c build/default/debug/_ext/1171490990/fault_handlers.o
 .comment       0x000000000000002b       0x2c build/default/debug/_ext/60177924/plib_pio.o
 .comment       0x000000000000002b       0x2c build/default/debug/_ext/1269487135/sys_fs_media_manager.o
 .comment       0x000000000000002b       0x2c build/default/debug/_ext/1171490990/interrupts.o
 .comment       0x000000000000002b       0x2c build/default/debug/_ext/1269487135/sys_fs.o
 .comment       0x000000000000002b       0x2c build/default/debug/_ext/163028504/xc32_monitor.o
 .comment       0x000000000000002b       0x2c build/default/debug/_ext/411819097/ffunicode.o
 .comment       0x000000000000002b       0x2c build/default/debug/_ext/60165520/plib_clk.o
 .comment       0x000000000000002b       0x2c build/default/debug/_ext/60175171/plib_mmu.o
 .comment       0x000000000000002b       0x2c build/default/debug/_ext/101884895/sys_time.o
 .comment       0x000000000000002b       0x2c build/default/debug/_ext/565198302/diskio.o
 .comment       0x000000000000002b       0x2c build/default/debug/_ext/1865657120/plib_uart1.o
 .comment       0x000000000000002b       0x2c c:/program files/microchip/xc32/v4.60/bin/bin/../../lib/gcc/pic32c/8.3.1/thumb/v7-a+simd/hard\libgcc.a(_udivmoddi4.o)
 .comment       0x000000000000002b       0x2c c:/program files/microchip/xc32/v4.60/bin/bin/../../lib/gcc/pic32c/8.3.1/../../../../pic32c/lib/thumb/v7-a+simd/hard\libc-size-musl.a(memcmp.o)
 .comment       0x000000000000002b       0x2c c:/program files/microchip/xc32/v4.60/bin/bin/../../lib/gcc/pic32c/8.3.1/../../../../pic32c/lib/thumb/v7-a+simd/hard\libc-size-musl.a(memcpy.o)
 .comment       0x000000000000002b       0x2c c:/program files/microchip/xc32/v4.60/bin/bin/../../lib/gcc/pic32c/8.3.1/../../../../pic32c/lib/thumb/v7-a+simd/hard\libc-size-musl.a(memmove.o)
 .comment       0x000000000000002b       0x2c c:/program files/microchip/xc32/v4.60/bin/bin/../../lib/gcc/pic32c/8.3.1/../../../../pic32c/lib/thumb/v7-a+simd/hard\libc-size-musl.a(memset.o)
 .comment       0x000000000000002b       0x2c c:/program files/microchip/xc32/v4.60/bin/bin/../../lib/gcc/pic32c/8.3.1/../../../../pic32c/lib/thumb/v7-a+simd/hard\libc-size-musl.a(strlen.o)
 .comment       0x000000000000002b       0x2c c:/program files/microchip/xc32/v4.60/bin/bin/../../lib/gcc/pic32c/8.3.1/../../../../pic32c/lib/thumb/v7-a+simd/hard\libc-size-musl.a(strchr.o)
 .comment       0x000000000000002b       0x2c c:/program files/microchip/xc32/v4.60/bin/bin/../../lib/gcc/pic32c/8.3.1/../../../../pic32c/lib/thumb/v7-a+simd/hard\libc-size-musl.a(strchrnul.o)
 .comment       0x000000000000002b       0x2c c:/program files/microchip/xc32/v4.60/bin/bin/../../lib/gcc/pic32c/8.3.1/../../../../pic32c/lib/thumb/v7-a+simd/hard\libc-size-musl.a(strcmp.o)
 .comment       0x000000000000002b       0x2c c:/program files/microchip/xc32/v4.60/bin/bin/../../lib/gcc/pic32c/8.3.1/../../../../pic32c/lib/thumb/v7-a+simd/hard\libc-size-musl.a(strncmp.o)
 .comment       0x000000000000002b       0x2c c:/program files/microchip/xc32/v4.60/bin/bin/../../lib/gcc/pic32c/8.3.1/../../../../pic32c/lib/thumb/v7-a+simd/hard\liblmalloc-musl.a(lite_free.o)
 .comment       0x000000000000002b       0x2c c:/program files/microchip/xc32/v4.60/bin/bin/../../lib/gcc/pic32c/8.3.1/../../../../pic32c/lib/thumb/v7-a+simd/hard\liblmalloc-musl.a(lite_malloc.o)
 .comment       0x000000000000002b       0x2c c:/program files/microchip/xc32/v4.60/bin/bin/../../lib/gcc/pic32c/8.3.1/../../../../pic32c/lib/thumb/v7-a+simd/hard\libg-musl.a(__libc_start_main.o)
 .comment       0x000000000000002b       0x2c c:/program files/microchip/xc32/v4.60/bin/bin/../../lib/gcc/pic32c/8.3.1/../../../../pic32c/lib/thumb/v7-a+simd/hard\libg-musl.a(__errno_location.o)
 .comment       0x000000000000002b       0x2c c:/program files/microchip/xc32/v4.60/bin/bin/../../lib/gcc/pic32c/8.3.1/../../../../pic32c/lib/thumb/v7-a+simd/hard\libg-musl.a(libc.o)
 .comment       0x000000000000002b       0x2c c:/program files/microchip/xc32/v4.60/bin/bin/../../lib/gcc/pic32c/8.3.1/../../../../pic32c/lib/thumb/v7-a+simd/hard\libg-musl.a(expand_heap.o)
 .comment       0x000000000000002b       0x2c c:/program files/microchip/xc32/v4.60/bin/bin/../../lib/gcc/pic32c/8.3.1/../../../../pic32c/lib/thumb/v7-a+simd/hard\libg-musl.a(__sio_printf_dn.o)
 .comment       0x000000000000002b       0x2c c:/program files/microchip/xc32/v4.60/bin/bin/../../lib/gcc/pic32c/8.3.1/../../../../pic32c/lib/thumb/v7-a+simd/hard\libg-musl.a(__fmt_d.o)
 .comment       0x000000000000002b       0x2c c:/program files/microchip/xc32/v4.60/bin/bin/../../lib/gcc/pic32c/8.3.1/../../../../pic32c/lib/thumb/v7-a+simd/hard\libg-musl.a(__pop_int.o)
 .comment       0x000000000000002b       0x2c c:/program files/microchip/xc32/v4.60/bin/bin/../../lib/gcc/pic32c/8.3.1/../../../../pic32c/lib/thumb/v7-a+simd/hard\libg-musl.a(__pop_ptr.o)
 .comment       0x000000000000002b       0x2c c:/program files/microchip/xc32/v4.60/bin/bin/../../lib/gcc/pic32c/8.3.1/../../../../pic32c/lib/thumb/v7-a+simd/hard\libg-musl.a(__printf_core.o)
 .comment       0x000000000000002b       0x2c c:/program files/microchip/xc32/v4.60/bin/bin/../../lib/gcc/pic32c/8.3.1/../../../../pic32c/lib/thumb/v7-a+simd/hard\libg-musl.a(stdin.o)
 .comment       0x000000000000002b       0x2c c:/program files/microchip/xc32/v4.60/bin/bin/../../lib/gcc/pic32c/8.3.1/../../../../pic32c/lib/thumb/v7-a+simd/hard\libg-musl.a(stdout.o)
 .comment       0x000000000000002b       0x2c c:/program files/microchip/xc32/v4.60/bin/bin/../../lib/gcc/pic32c/8.3.1/../../../../pic32c/lib/thumb/v7-a+simd/hard\libg-musl.a(puts.o)
 .comment       0x000000000000002b       0x2c c:/program files/microchip/xc32/v4.60/bin/bin/../../lib/gcc/pic32c/8.3.1/../../../../pic32c/lib/thumb/v7-a+simd/hard\libg-musl.a(setbuf.o)
 .comment       0x000000000000002b       0x2c c:/program files/microchip/xc32/v4.60/bin/bin/../../lib/gcc/pic32c/8.3.1/../../../../pic32c/lib/thumb/v7-a+simd/hard\libg-musl.a(atoi.o)
 .comment       0x000000000000002b       0x2c c:/program files/microchip/xc32/v4.60/bin/bin/../../lib/gcc/pic32c/8.3.1/../../../../pic32c/lib/thumb/v7-a+simd/hard\libg-musl.a(tolower.o)
 .comment       0x000000000000002b       0x2c c:/program files/microchip/xc32/v4.60/bin/bin/../../lib/gcc/pic32c/8.3.1/../../../../pic32c/lib/thumb/v7-a+simd/hard\libg-musl.a(__environ.o)
 .comment       0x000000000000002b       0x2c c:/program files/microchip/xc32/v4.60/bin/bin/../../lib/gcc/pic32c/8.3.1/../../../../pic32c/lib/thumb/v7-a+simd/hard\libg-musl.a(__int_vfprintf.o)
 .comment       0x000000000000002b       0x2c c:/program files/microchip/xc32/v4.60/bin/bin/../../lib/gcc/pic32c/8.3.1/../../../../pic32c/lib/thumb/v7-a+simd/hard\libg-musl.a(fputs.o)
 .comment       0x000000000000002b       0x2c c:/program files/microchip/xc32/v4.60/bin/bin/../../lib/gcc/pic32c/8.3.1/../../../../pic32c/lib/thumb/v7-a+simd/hard\libg-musl.a(__cvt_u.o)
 .comment       0x000000000000002b       0x2c c:/program files/microchip/xc32/v4.60/bin/bin/../../lib/gcc/pic32c/8.3.1/../../../../pic32c/lib/thumb/v7-a+simd/hard\libg-musl.a(__pop_float.o)
 .comment       0x000000000000002b       0x2c c:/program files/microchip/xc32/v4.60/bin/bin/../../lib/gcc/pic32c/8.3.1/../../../../pic32c/lib/thumb/v7-a+simd/hard\libg-musl.a(__stdio_read.o)
 .comment       0x000000000000002b       0x2c c:/program files/microchip/xc32/v4.60/bin/bin/../../lib/gcc/pic32c/8.3.1/../../../../pic32c/lib/thumb/v7-a+simd/hard\libg-musl.a(__towrite_rw.o)
 .comment       0x000000000000002b       0x2c c:/program files/microchip/xc32/v4.60/bin/bin/../../lib/gcc/pic32c/8.3.1/../../../../pic32c/lib/thumb/v7-a+simd/hard\libg-musl.a(fwrite.o)
 .comment       0x000000000000002b       0x2c c:/program files/microchip/xc32/v4.60/bin/bin/../../lib/gcc/pic32c/8.3.1/../../../../pic32c/lib/thumb/v7-a+simd/hard\libg-musl.a(putc.o)
 .comment       0x000000000000002b       0x2c c:/program files/microchip/xc32/v4.60/bin/bin/../../lib/gcc/pic32c/8.3.1/../../../../pic32c/lib/thumb/v7-a+simd/hard\libg-musl.a(setvbuf.o)
 .comment       0x000000000000002b       0x2c c:/program files/microchip/xc32/v4.60/bin/bin/../../lib/gcc/pic32c/8.3.1/../../../../pic32c/lib/thumb/v7-a+simd/hard\libg-musl.a(readv.o)
 .comment       0x000000000000002b       0x2c c:/program files/microchip/xc32/v4.60/bin/bin/../../lib/gcc/pic32c/8.3.1/../../../../pic32c/lib/thumb/v7-a+simd/hard\libg-musl.a(__init_stdio.o)
 .comment       0x000000000000002b       0x2c c:/program files/microchip/xc32/v4.60/bin/bin/../../lib/gcc/pic32c/8.3.1/../../../../pic32c/lib/thumb/v7-a+simd/hard\libg-musl.a(__out.o)
 .comment       0x000000000000002b       0x2c c:/program files/microchip/xc32/v4.60/bin/bin/../../lib/gcc/pic32c/8.3.1/../../../../pic32c/lib/thumb/v7-a+simd/hard\libg-musl.a(__putc.o)
 .comment       0x000000000000002b       0x2c c:/program files/microchip/xc32/v4.60/bin/bin/../../lib/gcc/pic32c/8.3.1/../../../../pic32c/lib/thumb/v7-a+simd/hard\libg-musl.a(__stderr.o)
 .comment       0x000000000000002b       0x2c c:/program files/microchip/xc32/v4.60/bin/bin/../../lib/gcc/pic32c/8.3.1/../../../../pic32c/lib/thumb/v7-a+simd/hard\libg-musl.a(__stdio_close.o)
 .comment       0x000000000000002b       0x2c c:/program files/microchip/xc32/v4.60/bin/bin/../../lib/gcc/pic32c/8.3.1/../../../../pic32c/lib/thumb/v7-a+simd/hard\libg-musl.a(__stdio_write.o)
 .comment       0x000000000000002b       0x2c c:/program files/microchip/xc32/v4.60/bin/bin/../../lib/gcc/pic32c/8.3.1/../../../../pic32c/lib/thumb/v7-a+simd/hard\libg-musl.a(__stdout.o)
 .comment       0x000000000000002b       0x2c c:/program files/microchip/xc32/v4.60/bin/bin/../../lib/gcc/pic32c/8.3.1/../../../../pic32c/lib/thumb/v7-a+simd/hard\libg-musl.a(__towrite.o)
 .comment       0x000000000000002b       0x2c c:/program files/microchip/xc32/v4.60/bin/bin/../../lib/gcc/pic32c/8.3.1/../../../../pic32c/lib/thumb/v7-a+simd/hard\libg-musl.a(writev.o)
 .comment       0x000000000000002b       0x2c c:/program files/microchip/xc32/v4.60/bin/bin/../../lib/gcc/pic32c/8.3.1/../../../../pic32c/lib/thumb/v7-a+simd/hard\libg-musl.a(__overflow.o)
 .comment       0x000000000000002b       0x2c c:/program files/microchip/xc32/v4.60/bin/bin/../../lib/gcc/pic32c/8.3.1/../../../../pic32c/lib/thumb/v7-a+simd/hard\libg-musl.a(__fwrite.o)
 .comment       0x000000000000002b       0x2c c:/program files/microchip/xc32/v4.60/bin/bin/../../lib/gcc/pic32c/8.3.1/../../../../pic32c/lib/thumb/v7-a+simd/hard\libpic32c.a(close.o)
 .comment       0x000000000000002b       0x2c c:/program files/microchip/xc32/v4.60/bin/bin/../../lib/gcc/pic32c/8.3.1/../../../../pic32c/lib/thumb/v7-a+simd/hard\libpic32c.a(lseek.o)
 .comment       0x000000000000002b       0x2c c:/program files/microchip/xc32/v4.60/bin/bin/../../lib/gcc/pic32c/8.3.1/../../../../pic32c/lib/thumb/v7-a+simd/hard\libpic32c.a(sbrk.o)

.debug_info     0x0000000000000000    0x2817c
 .debug_info    0x0000000000000000      0x859 build/default/debug/_ext/1881668453/sys_int.o
 .debug_info    0x0000000000000859      0x4a5 build/default/debug/_ext/1434821282/bsp.o
 .debug_info    0x0000000000000cfe       0x22 build/default/debug/_ext/1171490990/cstartup.o
 .debug_info    0x0000000000000d20     0x2f06 build/default/debug/_ext/1535495969/drv_usb_ohci.o
 .debug_info    0x0000000000003c26     0x19bb build/default/debug/_ext/1171490990/initialization.o
 .debug_info    0x00000000000055e1      0x11b build/default/debug/_ext/1171490990/tasks.o
 .debug_info    0x00000000000056fc      0xb37 build/default/debug/_ext/60163497/plib_aic.o
 .debug_info    0x0000000000006233      0x563 build/default/debug/_ext/1666157715/plib_matrix.o
 .debug_info    0x0000000000006796      0x4ab build/default/debug/_ext/829342655/plib_tc0.o
 .debug_info    0x0000000000006c41     0x443c build/default/debug/_ext/308758920/usb_host.o
 .debug_info    0x000000000000b07d      0xa5c build/default/debug/_ext/1360937237/app.o
 .debug_info    0x000000000000bad9     0x1730 build/default/debug/_ext/1269487135/sys_fs_fat_interface.o
 .debug_info    0x000000000000d209     0x3ab9 build/default/debug/_ext/411819097/ff.o
 .debug_info    0x0000000000010cc2       0xa7 build/default/debug/_ext/1360937237/main.o
 .debug_info    0x0000000000010d69     0x1713 build/default/debug/_ext/308758920/usb_host_scsi.o
 .debug_info    0x000000000001247c     0x1a8a build/default/debug/_ext/308758920/usb_host_msd.o
 .debug_info    0x0000000000013f06     0x3798 build/default/debug/_ext/1535495969/drv_usb_ehci.o
 .debug_info    0x000000000001769e      0xea4 build/default/debug/_ext/1171490990/usb_host_init_data.o
 .debug_info    0x0000000000018542       0xd7 build/default/debug/_ext/1171490990/fault_handlers.o
 .debug_info    0x0000000000018619      0x681 build/default/debug/_ext/60177924/plib_pio.o
 .debug_info    0x0000000000018c9a     0x14ab build/default/debug/_ext/1269487135/sys_fs_media_manager.o
 .debug_info    0x000000000001a145       0xc3 build/default/debug/_ext/1171490990/interrupts.o
 .debug_info    0x000000000001a208     0x2e9b build/default/debug/_ext/1269487135/sys_fs.o
 .debug_info    0x000000000001d0a3      0x15d build/default/debug/_ext/163028504/xc32_monitor.o
 .debug_info    0x000000000001d200      0x27a build/default/debug/_ext/411819097/ffunicode.o
 .debug_info    0x000000000001d47a      0x768 build/default/debug/_ext/60165520/plib_clk.o
 .debug_info    0x000000000001dbe2     0x1643 build/default/debug/_ext/60175171/plib_mmu.o
 .debug_info    0x000000000001f225     0x1589 build/default/debug/_ext/101884895/sys_time.o
 .debug_info    0x00000000000207ae      0x78e build/default/debug/_ext/565198302/diskio.o
 .debug_info    0x0000000000020f3c      0x4f7 build/default/debug/_ext/1865657120/plib_uart1.o
 .debug_info    0x0000000000021433       0x26 c:/program files/microchip/xc32/v4.60/bin/bin/../../lib/gcc/pic32c/8.3.1/thumb/v7-a+simd/hard\libgcc.a(_udivsi3.o)
 .debug_info    0x0000000000021459       0x26 c:/program files/microchip/xc32/v4.60/bin/bin/../../lib/gcc/pic32c/8.3.1/thumb/v7-a+simd/hard\libgcc.a(_divsi3.o)
 .debug_info    0x000000000002147f       0x26 c:/program files/microchip/xc32/v4.60/bin/bin/../../lib/gcc/pic32c/8.3.1/thumb/v7-a+simd/hard\libgcc.a(_dvmd_tls.o)
 .debug_info    0x00000000000214a5       0x26 c:/program files/microchip/xc32/v4.60/bin/bin/../../lib/gcc/pic32c/8.3.1/thumb/v7-a+simd/hard\libgcc.a(_aeabi_uldivmod.o)
 .debug_info    0x00000000000214cb      0x198 c:/program files/microchip/xc32/v4.60/bin/bin/../../lib/gcc/pic32c/8.3.1/thumb/v7-a+simd/hard\libgcc.a(_udivmoddi4.o)
 .debug_info    0x0000000000021663       0xe0 c:/program files/microchip/xc32/v4.60/bin/bin/../../lib/gcc/pic32c/8.3.1/../../../../pic32c/lib/thumb/v7-a+simd/hard\libc-size-musl.a(memcmp.o)
 .debug_info    0x0000000000021743       0xf3 c:/program files/microchip/xc32/v4.60/bin/bin/../../lib/gcc/pic32c/8.3.1/../../../../pic32c/lib/thumb/v7-a+simd/hard\libc-size-musl.a(memcpy.o)
 .debug_info    0x0000000000021836       0xea c:/program files/microchip/xc32/v4.60/bin/bin/../../lib/gcc/pic32c/8.3.1/../../../../pic32c/lib/thumb/v7-a+simd/hard\libc-size-musl.a(memmove.o)
 .debug_info    0x0000000000021920       0xbb c:/program files/microchip/xc32/v4.60/bin/bin/../../lib/gcc/pic32c/8.3.1/../../../../pic32c/lib/thumb/v7-a+simd/hard\libc-size-musl.a(memset.o)
 .debug_info    0x00000000000219db       0xa4 c:/program files/microchip/xc32/v4.60/bin/bin/../../lib/gcc/pic32c/8.3.1/../../../../pic32c/lib/thumb/v7-a+simd/hard\libc-size-musl.a(strlen.o)
 .debug_info    0x0000000000021a7f       0xd2 c:/program files/microchip/xc32/v4.60/bin/bin/../../lib/gcc/pic32c/8.3.1/../../../../pic32c/lib/thumb/v7-a+simd/hard\libc-size-musl.a(strchr.o)
 .debug_info    0x0000000000021b51      0x12c c:/program files/microchip/xc32/v4.60/bin/bin/../../lib/gcc/pic32c/8.3.1/../../../../pic32c/lib/thumb/v7-a+simd/hard\libc-size-musl.a(strchrnul.o)
 .debug_info    0x0000000000021c7d       0x95 c:/program files/microchip/xc32/v4.60/bin/bin/../../lib/gcc/pic32c/8.3.1/../../../../pic32c/lib/thumb/v7-a+simd/hard\libc-size-musl.a(strcmp.o)
 .debug_info    0x0000000000021d12       0xeb c:/program files/microchip/xc32/v4.60/bin/bin/../../lib/gcc/pic32c/8.3.1/../../../../pic32c/lib/thumb/v7-a+simd/hard\libc-size-musl.a(strncmp.o)
 .debug_info    0x0000000000021dfd      0x26f c:/program files/microchip/xc32/v4.60/bin/bin/../../lib/gcc/pic32c/8.3.1/../../../../pic32c/lib/thumb/v7-a+simd/hard\liblmalloc-musl.a(lite_free.o)
 .debug_info    0x000000000002206c      0x1bd c:/program files/microchip/xc32/v4.60/bin/bin/../../lib/gcc/pic32c/8.3.1/../../../../pic32c/lib/thumb/v7-a+simd/hard\liblmalloc-musl.a(lite_malloc.o)
 .debug_info    0x0000000000022229      0x2fb c:/program files/microchip/xc32/v4.60/bin/bin/../../lib/gcc/pic32c/8.3.1/../../../../pic32c/lib/thumb/v7-a+simd/hard\libg-musl.a(__libc_start_main.o)
 .debug_info    0x0000000000022524       0x5b c:/program files/microchip/xc32/v4.60/bin/bin/../../lib/gcc/pic32c/8.3.1/../../../../pic32c/lib/thumb/v7-a+simd/hard\libg-musl.a(__errno_location.o)
 .debug_info    0x000000000002257f      0x276 c:/program files/microchip/xc32/v4.60/bin/bin/../../lib/gcc/pic32c/8.3.1/../../../../pic32c/lib/thumb/v7-a+simd/hard\libg-musl.a(libc.o)
 .debug_info    0x00000000000227f5      0x10e c:/program files/microchip/xc32/v4.60/bin/bin/../../lib/gcc/pic32c/8.3.1/../../../../pic32c/lib/thumb/v7-a+simd/hard\libg-musl.a(expand_heap.o)
 .debug_info    0x0000000000022903      0x1bb c:/program files/microchip/xc32/v4.60/bin/bin/../../lib/gcc/pic32c/8.3.1/../../../../pic32c/lib/thumb/v7-a+simd/hard\libg-musl.a(__sio_printf_dn.o)
 .debug_info    0x0000000000022abe      0x330 c:/program files/microchip/xc32/v4.60/bin/bin/../../lib/gcc/pic32c/8.3.1/../../../../pic32c/lib/thumb/v7-a+simd/hard\libg-musl.a(__fmt_d.o)
 .debug_info    0x0000000000022dee      0x183 c:/program files/microchip/xc32/v4.60/bin/bin/../../lib/gcc/pic32c/8.3.1/../../../../pic32c/lib/thumb/v7-a+simd/hard\libg-musl.a(__pop_int.o)
 .debug_info    0x0000000000022f71      0x187 c:/program files/microchip/xc32/v4.60/bin/bin/../../lib/gcc/pic32c/8.3.1/../../../../pic32c/lib/thumb/v7-a+simd/hard\libg-musl.a(__pop_ptr.o)
 .debug_info    0x00000000000230f8      0xa5d c:/program files/microchip/xc32/v4.60/bin/bin/../../lib/gcc/pic32c/8.3.1/../../../../pic32c/lib/thumb/v7-a+simd/hard\libg-musl.a(__printf_core.o)
 .debug_info    0x0000000000023b55      0x404 c:/program files/microchip/xc32/v4.60/bin/bin/../../lib/gcc/pic32c/8.3.1/../../../../pic32c/lib/thumb/v7-a+simd/hard\libg-musl.a(stdin.o)
 .debug_info    0x0000000000023f59      0x1e9 c:/program files/microchip/xc32/v4.60/bin/bin/../../lib/gcc/pic32c/8.3.1/../../../../pic32c/lib/thumb/v7-a+simd/hard\libg-musl.a(stdout.o)
 .debug_info    0x0000000000024142      0x3ac c:/program files/microchip/xc32/v4.60/bin/bin/../../lib/gcc/pic32c/8.3.1/../../../../pic32c/lib/thumb/v7-a+simd/hard\libg-musl.a(puts.o)
 .debug_info    0x00000000000244ee       0xdb c:/program files/microchip/xc32/v4.60/bin/bin/../../lib/gcc/pic32c/8.3.1/../../../../pic32c/lib/thumb/v7-a+simd/hard\libg-musl.a(setbuf.o)
 .debug_info    0x00000000000245c9       0xf4 c:/program files/microchip/xc32/v4.60/bin/bin/../../lib/gcc/pic32c/8.3.1/../../../../pic32c/lib/thumb/v7-a+simd/hard\libg-musl.a(atoi.o)
 .debug_info    0x00000000000246bd      0x12b c:/program files/microchip/xc32/v4.60/bin/bin/../../lib/gcc/pic32c/8.3.1/../../../../pic32c/lib/thumb/v7-a+simd/hard\libg-musl.a(tolower.o)
 .debug_info    0x00000000000247e8       0x97 c:/program files/microchip/xc32/v4.60/bin/bin/../../lib/gcc/pic32c/8.3.1/../../../../pic32c/lib/thumb/v7-a+simd/hard\libg-musl.a(__environ.o)
 .debug_info    0x000000000002487f      0x1f7 c:/program files/microchip/xc32/v4.60/bin/bin/../../lib/gcc/pic32c/8.3.1/../../../../pic32c/lib/thumb/v7-a+simd/hard\libg-musl.a(__int_vfprintf.o)
 .debug_info    0x0000000000024a76      0x3b6 c:/program files/microchip/xc32/v4.60/bin/bin/../../lib/gcc/pic32c/8.3.1/../../../../pic32c/lib/thumb/v7-a+simd/hard\libg-musl.a(fputs.o)
 .debug_info    0x0000000000024e2c      0x1d9 c:/program files/microchip/xc32/v4.60/bin/bin/../../lib/gcc/pic32c/8.3.1/../../../../pic32c/lib/thumb/v7-a+simd/hard\libg-musl.a(__cvt_u.o)
 .debug_info    0x0000000000025005      0x162 c:/program files/microchip/xc32/v4.60/bin/bin/../../lib/gcc/pic32c/8.3.1/../../../../pic32c/lib/thumb/v7-a+simd/hard\libg-musl.a(__pop_float.o)
 .debug_info    0x0000000000025167      0x3ef c:/program files/microchip/xc32/v4.60/bin/bin/../../lib/gcc/pic32c/8.3.1/../../../../pic32c/lib/thumb/v7-a+simd/hard\libg-musl.a(__stdio_read.o)
 .debug_info    0x0000000000025556      0x331 c:/program files/microchip/xc32/v4.60/bin/bin/../../lib/gcc/pic32c/8.3.1/../../../../pic32c/lib/thumb/v7-a+simd/hard\libg-musl.a(__towrite_rw.o)
 .debug_info    0x0000000000025887      0x257 c:/program files/microchip/xc32/v4.60/bin/bin/../../lib/gcc/pic32c/8.3.1/../../../../pic32c/lib/thumb/v7-a+simd/hard\libg-musl.a(fwrite.o)
 .debug_info    0x0000000000025ade      0x224 c:/program files/microchip/xc32/v4.60/bin/bin/../../lib/gcc/pic32c/8.3.1/../../../../pic32c/lib/thumb/v7-a+simd/hard\libg-musl.a(putc.o)
 .debug_info    0x0000000000025d02      0x2bd c:/program files/microchip/xc32/v4.60/bin/bin/../../lib/gcc/pic32c/8.3.1/../../../../pic32c/lib/thumb/v7-a+simd/hard\libg-musl.a(setvbuf.o)
 .debug_info    0x0000000000025fbf      0x146 c:/program files/microchip/xc32/v4.60/bin/bin/../../lib/gcc/pic32c/8.3.1/../../../../pic32c/lib/thumb/v7-a+simd/hard\libg-musl.a(readv.o)
 .debug_info    0x0000000000026105       0xc3 c:/program files/microchip/xc32/v4.60/bin/bin/../../lib/gcc/pic32c/8.3.1/../../../../pic32c/lib/thumb/v7-a+simd/hard\libg-musl.a(__init_stdio.o)
 .debug_info    0x00000000000261c8      0x2b2 c:/program files/microchip/xc32/v4.60/bin/bin/../../lib/gcc/pic32c/8.3.1/../../../../pic32c/lib/thumb/v7-a+simd/hard\libg-musl.a(__out.o)
 .debug_info    0x000000000002647a      0x28f c:/program files/microchip/xc32/v4.60/bin/bin/../../lib/gcc/pic32c/8.3.1/../../../../pic32c/lib/thumb/v7-a+simd/hard\libg-musl.a(__putc.o)
 .debug_info    0x0000000000026709      0x3a9 c:/program files/microchip/xc32/v4.60/bin/bin/../../lib/gcc/pic32c/8.3.1/../../../../pic32c/lib/thumb/v7-a+simd/hard\libg-musl.a(__stderr.o)
 .debug_info    0x0000000000026ab2      0x3ff c:/program files/microchip/xc32/v4.60/bin/bin/../../lib/gcc/pic32c/8.3.1/../../../../pic32c/lib/thumb/v7-a+simd/hard\libg-musl.a(__stdio_close.o)
 .debug_info    0x0000000000026eb1      0x43e c:/program files/microchip/xc32/v4.60/bin/bin/../../lib/gcc/pic32c/8.3.1/../../../../pic32c/lib/thumb/v7-a+simd/hard\libg-musl.a(__stdio_write.o)
 .debug_info    0x00000000000272ef      0x3a9 c:/program files/microchip/xc32/v4.60/bin/bin/../../lib/gcc/pic32c/8.3.1/../../../../pic32c/lib/thumb/v7-a+simd/hard\libg-musl.a(__stdout.o)
 .debug_info    0x0000000000027698      0x275 c:/program files/microchip/xc32/v4.60/bin/bin/../../lib/gcc/pic32c/8.3.1/../../../../pic32c/lib/thumb/v7-a+simd/hard\libg-musl.a(__towrite.o)
 .debug_info    0x000000000002790d      0x146 c:/program files/microchip/xc32/v4.60/bin/bin/../../lib/gcc/pic32c/8.3.1/../../../../pic32c/lib/thumb/v7-a+simd/hard\libg-musl.a(writev.o)
 .debug_info    0x0000000000027a53      0x388 c:/program files/microchip/xc32/v4.60/bin/bin/../../lib/gcc/pic32c/8.3.1/../../../../pic32c/lib/thumb/v7-a+simd/hard\libg-musl.a(__overflow.o)
 .debug_info    0x0000000000027ddb      0x2b9 c:/program files/microchip/xc32/v4.60/bin/bin/../../lib/gcc/pic32c/8.3.1/../../../../pic32c/lib/thumb/v7-a+simd/hard\libg-musl.a(__fwrite.o)
 .debug_info    0x0000000000028094       0x3f c:/program files/microchip/xc32/v4.60/bin/bin/../../lib/gcc/pic32c/8.3.1/../../../../pic32c/lib/thumb/v7-a+simd/hard\libpic32c.a(close.o)
 .debug_info    0x00000000000280d3       0x3f c:/program files/microchip/xc32/v4.60/bin/bin/../../lib/gcc/pic32c/8.3.1/../../../../pic32c/lib/thumb/v7-a+simd/hard\libpic32c.a(lseek.o)
 .debug_info    0x0000000000028112       0x6a c:/program files/microchip/xc32/v4.60/bin/bin/../../lib/gcc/pic32c/8.3.1/../../../../pic32c/lib/thumb/v7-a+simd/hard\libpic32c.a(sbrk.o)

.debug_abbrev   0x0000000000000000     0x6eb2
 .debug_abbrev  0x0000000000000000      0x1e6 build/default/debug/_ext/1881668453/sys_int.o
 .debug_abbrev  0x00000000000001e6       0xbc build/default/debug/_ext/1434821282/bsp.o
 .debug_abbrev  0x00000000000002a2       0x12 build/default/debug/_ext/1171490990/cstartup.o
 .debug_abbrev  0x00000000000002b4      0x3c7 build/default/debug/_ext/1535495969/drv_usb_ohci.o
 .debug_abbrev  0x000000000000067b      0x2d1 build/default/debug/_ext/1171490990/initialization.o
 .debug_abbrev  0x000000000000094c       0x88 build/default/debug/_ext/1171490990/tasks.o
 .debug_abbrev  0x00000000000009d4      0x222 build/default/debug/_ext/60163497/plib_aic.o
 .debug_abbrev  0x0000000000000bf6       0xc4 build/default/debug/_ext/1666157715/plib_matrix.o
 .debug_abbrev  0x0000000000000cba      0x16b build/default/debug/_ext/829342655/plib_tc0.o
 .debug_abbrev  0x0000000000000e25      0x380 build/default/debug/_ext/308758920/usb_host.o
 .debug_abbrev  0x00000000000011a5      0x226 build/default/debug/_ext/1360937237/app.o
 .debug_abbrev  0x00000000000013cb      0x2e5 build/default/debug/_ext/1269487135/sys_fs_fat_interface.o
 .debug_abbrev  0x00000000000016b0      0x2b1 build/default/debug/_ext/411819097/ff.o
 .debug_abbrev  0x0000000000001961       0x48 build/default/debug/_ext/1360937237/main.o
 .debug_abbrev  0x00000000000019a9      0x24d build/default/debug/_ext/308758920/usb_host_scsi.o
 .debug_abbrev  0x0000000000001bf6      0x34e build/default/debug/_ext/308758920/usb_host_msd.o
 .debug_abbrev  0x0000000000001f44      0x421 build/default/debug/_ext/1535495969/drv_usb_ehci.o
 .debug_abbrev  0x0000000000002365      0x1af build/default/debug/_ext/1171490990/usb_host_init_data.o
 .debug_abbrev  0x0000000000002514       0x49 build/default/debug/_ext/1171490990/fault_handlers.o
 .debug_abbrev  0x000000000000255d      0x107 build/default/debug/_ext/60177924/plib_pio.o
 .debug_abbrev  0x0000000000002664      0x305 build/default/debug/_ext/1269487135/sys_fs_media_manager.o
 .debug_abbrev  0x0000000000002969       0x66 build/default/debug/_ext/1171490990/interrupts.o
 .debug_abbrev  0x00000000000029cf      0x3d5 build/default/debug/_ext/1269487135/sys_fs.o
 .debug_abbrev  0x0000000000002da4       0xaf build/default/debug/_ext/163028504/xc32_monitor.o
 .debug_abbrev  0x0000000000002e53       0xd9 build/default/debug/_ext/411819097/ffunicode.o
 .debug_abbrev  0x0000000000002f2c      0x130 build/default/debug/_ext/60165520/plib_clk.o
 .debug_abbrev  0x000000000000305c      0x288 build/default/debug/_ext/60175171/plib_mmu.o
 .debug_abbrev  0x00000000000032e4      0x356 build/default/debug/_ext/101884895/sys_time.o
 .debug_abbrev  0x000000000000363a      0x2b5 build/default/debug/_ext/565198302/diskio.o
 .debug_abbrev  0x00000000000038ef      0x166 build/default/debug/_ext/1865657120/plib_uart1.o
 .debug_abbrev  0x0000000000003a55       0x14 c:/program files/microchip/xc32/v4.60/bin/bin/../../lib/gcc/pic32c/8.3.1/thumb/v7-a+simd/hard\libgcc.a(_udivsi3.o)
 .debug_abbrev  0x0000000000003a69       0x14 c:/program files/microchip/xc32/v4.60/bin/bin/../../lib/gcc/pic32c/8.3.1/thumb/v7-a+simd/hard\libgcc.a(_divsi3.o)
 .debug_abbrev  0x0000000000003a7d       0x14 c:/program files/microchip/xc32/v4.60/bin/bin/../../lib/gcc/pic32c/8.3.1/thumb/v7-a+simd/hard\libgcc.a(_dvmd_tls.o)
 .debug_abbrev  0x0000000000003a91       0x14 c:/program files/microchip/xc32/v4.60/bin/bin/../../lib/gcc/pic32c/8.3.1/thumb/v7-a+simd/hard\libgcc.a(_aeabi_uldivmod.o)
 .debug_abbrev  0x0000000000003aa5       0x88 c:/program files/microchip/xc32/v4.60/bin/bin/../../lib/gcc/pic32c/8.3.1/thumb/v7-a+simd/hard\libgcc.a(_udivmoddi4.o)
 .debug_abbrev  0x0000000000003b2d       0x96 c:/program files/microchip/xc32/v4.60/bin/bin/../../lib/gcc/pic32c/8.3.1/../../../../pic32c/lib/thumb/v7-a+simd/hard\libc-size-musl.a(memcmp.o)
 .debug_abbrev  0x0000000000003bc3       0xbb c:/program files/microchip/xc32/v4.60/bin/bin/../../lib/gcc/pic32c/8.3.1/../../../../pic32c/lib/thumb/v7-a+simd/hard\libc-size-musl.a(memcpy.o)
 .debug_abbrev  0x0000000000003c7e       0xae c:/program files/microchip/xc32/v4.60/bin/bin/../../lib/gcc/pic32c/8.3.1/../../../../pic32c/lib/thumb/v7-a+simd/hard\libc-size-musl.a(memmove.o)
 .debug_abbrev  0x0000000000003d2c       0xa2 c:/program files/microchip/xc32/v4.60/bin/bin/../../lib/gcc/pic32c/8.3.1/../../../../pic32c/lib/thumb/v7-a+simd/hard\libc-size-musl.a(memset.o)
 .debug_abbrev  0x0000000000003dce       0x91 c:/program files/microchip/xc32/v4.60/bin/bin/../../lib/gcc/pic32c/8.3.1/../../../../pic32c/lib/thumb/v7-a+simd/hard\libc-size-musl.a(strlen.o)
 .debug_abbrev  0x0000000000003e5f       0xad c:/program files/microchip/xc32/v4.60/bin/bin/../../lib/gcc/pic32c/8.3.1/../../../../pic32c/lib/thumb/v7-a+simd/hard\libc-size-musl.a(strchr.o)
 .debug_abbrev  0x0000000000003f0c       0xb0 c:/program files/microchip/xc32/v4.60/bin/bin/../../lib/gcc/pic32c/8.3.1/../../../../pic32c/lib/thumb/v7-a+simd/hard\libc-size-musl.a(strchrnul.o)
 .debug_abbrev  0x0000000000003fbc       0x6e c:/program files/microchip/xc32/v4.60/bin/bin/../../lib/gcc/pic32c/8.3.1/../../../../pic32c/lib/thumb/v7-a+simd/hard\libc-size-musl.a(strcmp.o)
 .debug_abbrev  0x000000000000402a       0x91 c:/program files/microchip/xc32/v4.60/bin/bin/../../lib/gcc/pic32c/8.3.1/../../../../pic32c/lib/thumb/v7-a+simd/hard\libc-size-musl.a(strncmp.o)
 .debug_abbrev  0x00000000000040bb      0x195 c:/program files/microchip/xc32/v4.60/bin/bin/../../lib/gcc/pic32c/8.3.1/../../../../pic32c/lib/thumb/v7-a+simd/hard\liblmalloc-musl.a(lite_free.o)
 .debug_abbrev  0x0000000000004250      0x117 c:/program files/microchip/xc32/v4.60/bin/bin/../../lib/gcc/pic32c/8.3.1/../../../../pic32c/lib/thumb/v7-a+simd/hard\liblmalloc-musl.a(lite_malloc.o)
 .debug_abbrev  0x0000000000004367      0x133 c:/program files/microchip/xc32/v4.60/bin/bin/../../lib/gcc/pic32c/8.3.1/../../../../pic32c/lib/thumb/v7-a+simd/hard\libg-musl.a(__libc_start_main.o)
 .debug_abbrev  0x000000000000449a       0x39 c:/program files/microchip/xc32/v4.60/bin/bin/../../lib/gcc/pic32c/8.3.1/../../../../pic32c/lib/thumb/v7-a+simd/hard\libg-musl.a(__errno_location.o)
 .debug_abbrev  0x00000000000044d3       0xd4 c:/program files/microchip/xc32/v4.60/bin/bin/../../lib/gcc/pic32c/8.3.1/../../../../pic32c/lib/thumb/v7-a+simd/hard\libg-musl.a(libc.o)
 .debug_abbrev  0x00000000000045a7       0xc4 c:/program files/microchip/xc32/v4.60/bin/bin/../../lib/gcc/pic32c/8.3.1/../../../../pic32c/lib/thumb/v7-a+simd/hard\libg-musl.a(expand_heap.o)
 .debug_abbrev  0x000000000000466b      0x150 c:/program files/microchip/xc32/v4.60/bin/bin/../../lib/gcc/pic32c/8.3.1/../../../../pic32c/lib/thumb/v7-a+simd/hard\libg-musl.a(__sio_printf_dn.o)
 .debug_abbrev  0x00000000000047bb      0x161 c:/program files/microchip/xc32/v4.60/bin/bin/../../lib/gcc/pic32c/8.3.1/../../../../pic32c/lib/thumb/v7-a+simd/hard\libg-musl.a(__fmt_d.o)
 .debug_abbrev  0x000000000000491c       0xdc c:/program files/microchip/xc32/v4.60/bin/bin/../../lib/gcc/pic32c/8.3.1/../../../../pic32c/lib/thumb/v7-a+simd/hard\libg-musl.a(__pop_int.o)
 .debug_abbrev  0x00000000000049f8       0xed c:/program files/microchip/xc32/v4.60/bin/bin/../../lib/gcc/pic32c/8.3.1/../../../../pic32c/lib/thumb/v7-a+simd/hard\libg-musl.a(__pop_ptr.o)
 .debug_abbrev  0x0000000000004ae5      0x332 c:/program files/microchip/xc32/v4.60/bin/bin/../../lib/gcc/pic32c/8.3.1/../../../../pic32c/lib/thumb/v7-a+simd/hard\libg-musl.a(__printf_core.o)
 .debug_abbrev  0x0000000000004e17      0x1b6 c:/program files/microchip/xc32/v4.60/bin/bin/../../lib/gcc/pic32c/8.3.1/../../../../pic32c/lib/thumb/v7-a+simd/hard\libg-musl.a(stdin.o)
 .debug_abbrev  0x0000000000004fcd      0x162 c:/program files/microchip/xc32/v4.60/bin/bin/../../lib/gcc/pic32c/8.3.1/../../../../pic32c/lib/thumb/v7-a+simd/hard\libg-musl.a(stdout.o)
 .debug_abbrev  0x000000000000512f      0x159 c:/program files/microchip/xc32/v4.60/bin/bin/../../lib/gcc/pic32c/8.3.1/../../../../pic32c/lib/thumb/v7-a+simd/hard\libg-musl.a(puts.o)
 .debug_abbrev  0x0000000000005288       0xab c:/program files/microchip/xc32/v4.60/bin/bin/../../lib/gcc/pic32c/8.3.1/../../../../pic32c/lib/thumb/v7-a+simd/hard\libg-musl.a(setbuf.o)
 .debug_abbrev  0x0000000000005333       0xc6 c:/program files/microchip/xc32/v4.60/bin/bin/../../lib/gcc/pic32c/8.3.1/../../../../pic32c/lib/thumb/v7-a+simd/hard\libg-musl.a(atoi.o)
 .debug_abbrev  0x00000000000053f9      0x108 c:/program files/microchip/xc32/v4.60/bin/bin/../../lib/gcc/pic32c/8.3.1/../../../../pic32c/lib/thumb/v7-a+simd/hard\libg-musl.a(tolower.o)
 .debug_abbrev  0x0000000000005501       0x62 c:/program files/microchip/xc32/v4.60/bin/bin/../../lib/gcc/pic32c/8.3.1/../../../../pic32c/lib/thumb/v7-a+simd/hard\libg-musl.a(__environ.o)
 .debug_abbrev  0x0000000000005563      0x12d c:/program files/microchip/xc32/v4.60/bin/bin/../../lib/gcc/pic32c/8.3.1/../../../../pic32c/lib/thumb/v7-a+simd/hard\libg-musl.a(__int_vfprintf.o)
 .debug_abbrev  0x0000000000005690      0x146 c:/program files/microchip/xc32/v4.60/bin/bin/../../lib/gcc/pic32c/8.3.1/../../../../pic32c/lib/thumb/v7-a+simd/hard\libg-musl.a(fputs.o)
 .debug_abbrev  0x00000000000057d6       0xe5 c:/program files/microchip/xc32/v4.60/bin/bin/../../lib/gcc/pic32c/8.3.1/../../../../pic32c/lib/thumb/v7-a+simd/hard\libg-musl.a(__cvt_u.o)
 .debug_abbrev  0x00000000000058bb       0xdc c:/program files/microchip/xc32/v4.60/bin/bin/../../lib/gcc/pic32c/8.3.1/../../../../pic32c/lib/thumb/v7-a+simd/hard\libg-musl.a(__pop_float.o)
 .debug_abbrev  0x0000000000005997      0x16c c:/program files/microchip/xc32/v4.60/bin/bin/../../lib/gcc/pic32c/8.3.1/../../../../pic32c/lib/thumb/v7-a+simd/hard\libg-musl.a(__stdio_read.o)
 .debug_abbrev  0x0000000000005b03       0xf8 c:/program files/microchip/xc32/v4.60/bin/bin/../../lib/gcc/pic32c/8.3.1/../../../../pic32c/lib/thumb/v7-a+simd/hard\libg-musl.a(__towrite_rw.o)
 .debug_abbrev  0x0000000000005bfb      0x13f c:/program files/microchip/xc32/v4.60/bin/bin/../../lib/gcc/pic32c/8.3.1/../../../../pic32c/lib/thumb/v7-a+simd/hard\libg-musl.a(fwrite.o)
 .debug_abbrev  0x0000000000005d3a      0x125 c:/program files/microchip/xc32/v4.60/bin/bin/../../lib/gcc/pic32c/8.3.1/../../../../pic32c/lib/thumb/v7-a+simd/hard\libg-musl.a(putc.o)
 .debug_abbrev  0x0000000000005e5f      0x138 c:/program files/microchip/xc32/v4.60/bin/bin/../../lib/gcc/pic32c/8.3.1/../../../../pic32c/lib/thumb/v7-a+simd/hard\libg-musl.a(setvbuf.o)
 .debug_abbrev  0x0000000000005f97       0xf7 c:/program files/microchip/xc32/v4.60/bin/bin/../../lib/gcc/pic32c/8.3.1/../../../../pic32c/lib/thumb/v7-a+simd/hard\libg-musl.a(readv.o)
 .debug_abbrev  0x000000000000608e       0x65 c:/program files/microchip/xc32/v4.60/bin/bin/../../lib/gcc/pic32c/8.3.1/../../../../pic32c/lib/thumb/v7-a+simd/hard\libg-musl.a(__init_stdio.o)
 .debug_abbrev  0x00000000000060f3      0x18c c:/program files/microchip/xc32/v4.60/bin/bin/../../lib/gcc/pic32c/8.3.1/../../../../pic32c/lib/thumb/v7-a+simd/hard\libg-musl.a(__out.o)
 .debug_abbrev  0x000000000000627f      0x10f c:/program files/microchip/xc32/v4.60/bin/bin/../../lib/gcc/pic32c/8.3.1/../../../../pic32c/lib/thumb/v7-a+simd/hard\libg-musl.a(__putc.o)
 .debug_abbrev  0x000000000000638e      0x181 c:/program files/microchip/xc32/v4.60/bin/bin/../../lib/gcc/pic32c/8.3.1/../../../../pic32c/lib/thumb/v7-a+simd/hard\libg-musl.a(__stderr.o)
 .debug_abbrev  0x000000000000650f      0x152 c:/program files/microchip/xc32/v4.60/bin/bin/../../lib/gcc/pic32c/8.3.1/../../../../pic32c/lib/thumb/v7-a+simd/hard\libg-musl.a(__stdio_close.o)
 .debug_abbrev  0x0000000000006661      0x1bd c:/program files/microchip/xc32/v4.60/bin/bin/../../lib/gcc/pic32c/8.3.1/../../../../pic32c/lib/thumb/v7-a+simd/hard\libg-musl.a(__stdio_write.o)
 .debug_abbrev  0x000000000000681e      0x181 c:/program files/microchip/xc32/v4.60/bin/bin/../../lib/gcc/pic32c/8.3.1/../../../../pic32c/lib/thumb/v7-a+simd/hard\libg-musl.a(__stdout.o)
 .debug_abbrev  0x000000000000699f      0x114 c:/program files/microchip/xc32/v4.60/bin/bin/../../lib/gcc/pic32c/8.3.1/../../../../pic32c/lib/thumb/v7-a+simd/hard\libg-musl.a(__towrite.o)
 .debug_abbrev  0x0000000000006ab3       0xf7 c:/program files/microchip/xc32/v4.60/bin/bin/../../lib/gcc/pic32c/8.3.1/../../../../pic32c/lib/thumb/v7-a+simd/hard\libg-musl.a(writev.o)
 .debug_abbrev  0x0000000000006baa      0x141 c:/program files/microchip/xc32/v4.60/bin/bin/../../lib/gcc/pic32c/8.3.1/../../../../pic32c/lib/thumb/v7-a+simd/hard\libg-musl.a(__overflow.o)
 .debug_abbrev  0x0000000000006ceb      0x127 c:/program files/microchip/xc32/v4.60/bin/bin/../../lib/gcc/pic32c/8.3.1/../../../../pic32c/lib/thumb/v7-a+simd/hard\libg-musl.a(__fwrite.o)
 .debug_abbrev  0x0000000000006e12       0x2e c:/program files/microchip/xc32/v4.60/bin/bin/../../lib/gcc/pic32c/8.3.1/../../../../pic32c/lib/thumb/v7-a+simd/hard\libpic32c.a(close.o)
 .debug_abbrev  0x0000000000006e40       0x2e c:/program files/microchip/xc32/v4.60/bin/bin/../../lib/gcc/pic32c/8.3.1/../../../../pic32c/lib/thumb/v7-a+simd/hard\libpic32c.a(lseek.o)
 .debug_abbrev  0x0000000000006e6e       0x44 c:/program files/microchip/xc32/v4.60/bin/bin/../../lib/gcc/pic32c/8.3.1/../../../../pic32c/lib/thumb/v7-a+simd/hard\libpic32c.a(sbrk.o)

.debug_loc      0x0000000000000000     0xaca1
 .debug_loc     0x0000000000000000      0x2a0 build/default/debug/_ext/1881668453/sys_int.o
 .debug_loc     0x00000000000002a0       0x44 build/default/debug/_ext/1434821282/bsp.o
 .debug_loc     0x00000000000002e4      0x874 build/default/debug/_ext/1535495969/drv_usb_ohci.o
 .debug_loc     0x0000000000000b58       0xa8 build/default/debug/_ext/1171490990/initialization.o
 .debug_loc     0x0000000000000c00       0x2c build/default/debug/_ext/1171490990/tasks.o
 .debug_loc     0x0000000000000c2c      0x1fc build/default/debug/_ext/60163497/plib_aic.o
 .debug_loc     0x0000000000000e28       0x44 build/default/debug/_ext/1666157715/plib_matrix.o
 .debug_loc     0x0000000000000e6c      0x2c8 build/default/debug/_ext/829342655/plib_tc0.o
 .debug_loc     0x0000000000001134      0xdd4 build/default/debug/_ext/308758920/usb_host.o
 .debug_loc     0x0000000000001f08      0x13c build/default/debug/_ext/1360937237/app.o
 .debug_loc     0x0000000000002044      0x7d8 build/default/debug/_ext/1269487135/sys_fs_fat_interface.o
 .debug_loc     0x000000000000281c     0x1574 build/default/debug/_ext/411819097/ff.o
 .debug_loc     0x0000000000003d90       0x2c build/default/debug/_ext/1360937237/main.o
 .debug_loc     0x0000000000003dbc      0x620 build/default/debug/_ext/308758920/usb_host_scsi.o
 .debug_loc     0x00000000000043dc      0x3e0 build/default/debug/_ext/308758920/usb_host_msd.o
 .debug_loc     0x00000000000047bc      0x8d8 build/default/debug/_ext/1535495969/drv_usb_ehci.o
 .debug_loc     0x0000000000005094       0xb0 build/default/debug/_ext/1171490990/fault_handlers.o
 .debug_loc     0x0000000000005144      0x264 build/default/debug/_ext/60177924/plib_pio.o
 .debug_loc     0x00000000000053a8      0x530 build/default/debug/_ext/1269487135/sys_fs_media_manager.o
 .debug_loc     0x00000000000058d8       0x44 build/default/debug/_ext/1171490990/interrupts.o
 .debug_loc     0x000000000000591c      0xa20 build/default/debug/_ext/1269487135/sys_fs.o
 .debug_loc     0x000000000000633c       0x70 build/default/debug/_ext/163028504/xc32_monitor.o
 .debug_loc     0x00000000000063ac       0xcc build/default/debug/_ext/411819097/ffunicode.o
 .debug_loc     0x0000000000006478      0x2d4 build/default/debug/_ext/60165520/plib_clk.o
 .debug_loc     0x000000000000674c      0x3ac build/default/debug/_ext/60175171/plib_mmu.o
 .debug_loc     0x0000000000006af8      0x92c build/default/debug/_ext/101884895/sys_time.o
 .debug_loc     0x0000000000007424      0x21c build/default/debug/_ext/565198302/diskio.o
 .debug_loc     0x0000000000007640      0x2c8 build/default/debug/_ext/1865657120/plib_uart1.o
 .debug_loc     0x0000000000007908      0x2b7 c:/program files/microchip/xc32/v4.60/bin/bin/../../lib/gcc/pic32c/8.3.1/thumb/v7-a+simd/hard\libgcc.a(_udivmoddi4.o)
 .debug_loc     0x0000000000007bbf      0x10c c:/program files/microchip/xc32/v4.60/bin/bin/../../lib/gcc/pic32c/8.3.1/../../../../pic32c/lib/thumb/v7-a+simd/hard\libc-size-musl.a(memcmp.o)
 .debug_loc     0x0000000000007ccb      0x10b c:/program files/microchip/xc32/v4.60/bin/bin/../../lib/gcc/pic32c/8.3.1/../../../../pic32c/lib/thumb/v7-a+simd/hard\libc-size-musl.a(memcpy.o)
 .debug_loc     0x0000000000007dd6      0x169 c:/program files/microchip/xc32/v4.60/bin/bin/../../lib/gcc/pic32c/8.3.1/../../../../pic32c/lib/thumb/v7-a+simd/hard\libc-size-musl.a(memmove.o)
 .debug_loc     0x0000000000007f3f       0x7d c:/program files/microchip/xc32/v4.60/bin/bin/../../lib/gcc/pic32c/8.3.1/../../../../pic32c/lib/thumb/v7-a+simd/hard\libc-size-musl.a(memset.o)
 .debug_loc     0x0000000000007fbc       0x90 c:/program files/microchip/xc32/v4.60/bin/bin/../../lib/gcc/pic32c/8.3.1/../../../../pic32c/lib/thumb/v7-a+simd/hard\libc-size-musl.a(strlen.o)
 .debug_loc     0x000000000000804c       0x8c c:/program files/microchip/xc32/v4.60/bin/bin/../../lib/gcc/pic32c/8.3.1/../../../../pic32c/lib/thumb/v7-a+simd/hard\libc-size-musl.a(strchr.o)
 .debug_loc     0x00000000000080d8      0x11a c:/program files/microchip/xc32/v4.60/bin/bin/../../lib/gcc/pic32c/8.3.1/../../../../pic32c/lib/thumb/v7-a+simd/hard\libc-size-musl.a(strchrnul.o)
 .debug_loc     0x00000000000081f2       0x96 c:/program files/microchip/xc32/v4.60/bin/bin/../../lib/gcc/pic32c/8.3.1/../../../../pic32c/lib/thumb/v7-a+simd/hard\libc-size-musl.a(strcmp.o)
 .debug_loc     0x0000000000008288      0x1b1 c:/program files/microchip/xc32/v4.60/bin/bin/../../lib/gcc/pic32c/8.3.1/../../../../pic32c/lib/thumb/v7-a+simd/hard\libc-size-musl.a(strncmp.o)
 .debug_loc     0x0000000000008439      0x2ee c:/program files/microchip/xc32/v4.60/bin/bin/../../lib/gcc/pic32c/8.3.1/../../../../pic32c/lib/thumb/v7-a+simd/hard\liblmalloc-musl.a(lite_free.o)
 .debug_loc     0x0000000000008727       0xf3 c:/program files/microchip/xc32/v4.60/bin/bin/../../lib/gcc/pic32c/8.3.1/../../../../pic32c/lib/thumb/v7-a+simd/hard\liblmalloc-musl.a(lite_malloc.o)
 .debug_loc     0x000000000000881a       0x51 c:/program files/microchip/xc32/v4.60/bin/bin/../../lib/gcc/pic32c/8.3.1/../../../../pic32c/lib/thumb/v7-a+simd/hard\libg-musl.a(__libc_start_main.o)
 .debug_loc     0x000000000000886b       0x7c c:/program files/microchip/xc32/v4.60/bin/bin/../../lib/gcc/pic32c/8.3.1/../../../../pic32c/lib/thumb/v7-a+simd/hard\libg-musl.a(expand_heap.o)
 .debug_loc     0x00000000000088e7       0x91 c:/program files/microchip/xc32/v4.60/bin/bin/../../lib/gcc/pic32c/8.3.1/../../../../pic32c/lib/thumb/v7-a+simd/hard\libg-musl.a(__sio_printf_dn.o)
 .debug_loc     0x0000000000008978      0x1ef c:/program files/microchip/xc32/v4.60/bin/bin/../../lib/gcc/pic32c/8.3.1/../../../../pic32c/lib/thumb/v7-a+simd/hard\libg-musl.a(__fmt_d.o)
 .debug_loc     0x0000000000008b67      0x2f5 c:/program files/microchip/xc32/v4.60/bin/bin/../../lib/gcc/pic32c/8.3.1/../../../../pic32c/lib/thumb/v7-a+simd/hard\libg-musl.a(__pop_int.o)
 .debug_loc     0x0000000000008e5c      0x1db c:/program files/microchip/xc32/v4.60/bin/bin/../../lib/gcc/pic32c/8.3.1/../../../../pic32c/lib/thumb/v7-a+simd/hard\libg-musl.a(__pop_ptr.o)
 .debug_loc     0x0000000000009037      0x5e9 c:/program files/microchip/xc32/v4.60/bin/bin/../../lib/gcc/pic32c/8.3.1/../../../../pic32c/lib/thumb/v7-a+simd/hard\libg-musl.a(__printf_core.o)
 .debug_loc     0x0000000000009620       0x25 c:/program files/microchip/xc32/v4.60/bin/bin/../../lib/gcc/pic32c/8.3.1/../../../../pic32c/lib/thumb/v7-a+simd/hard\libg-musl.a(stdin.o)
 .debug_loc     0x0000000000009645       0x20 c:/program files/microchip/xc32/v4.60/bin/bin/../../lib/gcc/pic32c/8.3.1/../../../../pic32c/lib/thumb/v7-a+simd/hard\libg-musl.a(stdout.o)
 .debug_loc     0x0000000000009665       0x6a c:/program files/microchip/xc32/v4.60/bin/bin/../../lib/gcc/pic32c/8.3.1/../../../../pic32c/lib/thumb/v7-a+simd/hard\libg-musl.a(puts.o)
 .debug_loc     0x00000000000096cf       0x4a c:/program files/microchip/xc32/v4.60/bin/bin/../../lib/gcc/pic32c/8.3.1/../../../../pic32c/lib/thumb/v7-a+simd/hard\libg-musl.a(setbuf.o)
 .debug_loc     0x0000000000009719       0xd8 c:/program files/microchip/xc32/v4.60/bin/bin/../../lib/gcc/pic32c/8.3.1/../../../../pic32c/lib/thumb/v7-a+simd/hard\libg-musl.a(atoi.o)
 .debug_loc     0x00000000000097f1       0x4a c:/program files/microchip/xc32/v4.60/bin/bin/../../lib/gcc/pic32c/8.3.1/../../../../pic32c/lib/thumb/v7-a+simd/hard\libg-musl.a(tolower.o)
 .debug_loc     0x000000000000983b       0x88 c:/program files/microchip/xc32/v4.60/bin/bin/../../lib/gcc/pic32c/8.3.1/../../../../pic32c/lib/thumb/v7-a+simd/hard\libg-musl.a(__int_vfprintf.o)
 .debug_loc     0x00000000000098c3       0x93 c:/program files/microchip/xc32/v4.60/bin/bin/../../lib/gcc/pic32c/8.3.1/../../../../pic32c/lib/thumb/v7-a+simd/hard\libg-musl.a(fputs.o)
 .debug_loc     0x0000000000009956      0x1c8 c:/program files/microchip/xc32/v4.60/bin/bin/../../lib/gcc/pic32c/8.3.1/../../../../pic32c/lib/thumb/v7-a+simd/hard\libg-musl.a(__cvt_u.o)
 .debug_loc     0x0000000000009b1e       0xa6 c:/program files/microchip/xc32/v4.60/bin/bin/../../lib/gcc/pic32c/8.3.1/../../../../pic32c/lib/thumb/v7-a+simd/hard\libg-musl.a(__pop_float.o)
 .debug_loc     0x0000000000009bc4      0x103 c:/program files/microchip/xc32/v4.60/bin/bin/../../lib/gcc/pic32c/8.3.1/../../../../pic32c/lib/thumb/v7-a+simd/hard\libg-musl.a(__stdio_read.o)
 .debug_loc     0x0000000000009cc7       0x25 c:/program files/microchip/xc32/v4.60/bin/bin/../../lib/gcc/pic32c/8.3.1/../../../../pic32c/lib/thumb/v7-a+simd/hard\libg-musl.a(__towrite_rw.o)
 .debug_loc     0x0000000000009cec      0x16e c:/program files/microchip/xc32/v4.60/bin/bin/../../lib/gcc/pic32c/8.3.1/../../../../pic32c/lib/thumb/v7-a+simd/hard\libg-musl.a(fwrite.o)
 .debug_loc     0x0000000000009e5a      0x123 c:/program files/microchip/xc32/v4.60/bin/bin/../../lib/gcc/pic32c/8.3.1/../../../../pic32c/lib/thumb/v7-a+simd/hard\libg-musl.a(putc.o)
 .debug_loc     0x0000000000009f7d       0xd8 c:/program files/microchip/xc32/v4.60/bin/bin/../../lib/gcc/pic32c/8.3.1/../../../../pic32c/lib/thumb/v7-a+simd/hard\libg-musl.a(setvbuf.o)
 .debug_loc     0x000000000000a055       0xeb c:/program files/microchip/xc32/v4.60/bin/bin/../../lib/gcc/pic32c/8.3.1/../../../../pic32c/lib/thumb/v7-a+simd/hard\libg-musl.a(readv.o)
 .debug_loc     0x000000000000a140       0x20 c:/program files/microchip/xc32/v4.60/bin/bin/../../lib/gcc/pic32c/8.3.1/../../../../pic32c/lib/thumb/v7-a+simd/hard\libg-musl.a(__init_stdio.o)
 .debug_loc     0x000000000000a160      0x1a8 c:/program files/microchip/xc32/v4.60/bin/bin/../../lib/gcc/pic32c/8.3.1/../../../../pic32c/lib/thumb/v7-a+simd/hard\libg-musl.a(__out.o)
 .debug_loc     0x000000000000a308      0x114 c:/program files/microchip/xc32/v4.60/bin/bin/../../lib/gcc/pic32c/8.3.1/../../../../pic32c/lib/thumb/v7-a+simd/hard\libg-musl.a(__putc.o)
 .debug_loc     0x000000000000a41c       0x25 c:/program files/microchip/xc32/v4.60/bin/bin/../../lib/gcc/pic32c/8.3.1/../../../../pic32c/lib/thumb/v7-a+simd/hard\libg-musl.a(__stderr.o)
 .debug_loc     0x000000000000a441      0x208 c:/program files/microchip/xc32/v4.60/bin/bin/../../lib/gcc/pic32c/8.3.1/../../../../pic32c/lib/thumb/v7-a+simd/hard\libg-musl.a(__stdio_close.o)
 .debug_loc     0x000000000000a649      0x2e4 c:/program files/microchip/xc32/v4.60/bin/bin/../../lib/gcc/pic32c/8.3.1/../../../../pic32c/lib/thumb/v7-a+simd/hard\libg-musl.a(__stdio_write.o)
 .debug_loc     0x000000000000a92d       0x25 c:/program files/microchip/xc32/v4.60/bin/bin/../../lib/gcc/pic32c/8.3.1/../../../../pic32c/lib/thumb/v7-a+simd/hard\libg-musl.a(__stdout.o)
 .debug_loc     0x000000000000a952       0x7c c:/program files/microchip/xc32/v4.60/bin/bin/../../lib/gcc/pic32c/8.3.1/../../../../pic32c/lib/thumb/v7-a+simd/hard\libg-musl.a(__towrite.o)
 .debug_loc     0x000000000000a9ce       0xeb c:/program files/microchip/xc32/v4.60/bin/bin/../../lib/gcc/pic32c/8.3.1/../../../../pic32c/lib/thumb/v7-a+simd/hard\libg-musl.a(writev.o)
 .debug_loc     0x000000000000aab9       0xb6 c:/program files/microchip/xc32/v4.60/bin/bin/../../lib/gcc/pic32c/8.3.1/../../../../pic32c/lib/thumb/v7-a+simd/hard\libg-musl.a(__overflow.o)
 .debug_loc     0x000000000000ab6f      0x10a c:/program files/microchip/xc32/v4.60/bin/bin/../../lib/gcc/pic32c/8.3.1/../../../../pic32c/lib/thumb/v7-a+simd/hard\libg-musl.a(__fwrite.o)
 .debug_loc     0x000000000000ac79       0x28 c:/program files/microchip/xc32/v4.60/bin/bin/../../lib/gcc/pic32c/8.3.1/../../../../pic32c/lib/thumb/v7-a+simd/hard\libpic32c.a(sbrk.o)

.debug_aranges  0x0000000000000000     0x1ac8
 .debug_aranges
                0x0000000000000000       0x78 build/default/debug/_ext/1881668453/sys_int.o
 .debug_aranges
                0x0000000000000078       0x20 build/default/debug/_ext/1434821282/bsp.o
 .debug_aranges
                0x0000000000000098       0x30 build/default/debug/_ext/1171490990/cstartup.o
 .debug_aranges
                0x00000000000000c8      0x130 build/default/debug/_ext/1535495969/drv_usb_ohci.o
 .debug_aranges
                0x00000000000001f8       0x30 build/default/debug/_ext/1171490990/initialization.o
 .debug_aranges
                0x0000000000000228       0x20 build/default/debug/_ext/1171490990/tasks.o
 .debug_aranges
                0x0000000000000248       0x58 build/default/debug/_ext/60163497/plib_aic.o
 .debug_aranges
                0x00000000000002a0       0x20 build/default/debug/_ext/1666157715/plib_matrix.o
 .debug_aranges
                0x00000000000002c0       0x70 build/default/debug/_ext/829342655/plib_tc0.o
 .debug_aranges
                0x0000000000000330      0x1e0 build/default/debug/_ext/308758920/usb_host.o
 .debug_aranges
                0x0000000000000510       0x40 build/default/debug/_ext/1360937237/app.o
 .debug_aranges
                0x0000000000000550      0x130 build/default/debug/_ext/1269487135/sys_fs_fat_interface.o
 .debug_aranges
                0x0000000000000680      0x308 build/default/debug/_ext/411819097/ff.o
 .debug_aranges
                0x0000000000000988       0x20 build/default/debug/_ext/1360937237/main.o
 .debug_aranges
                0x00000000000009a8       0xe0 build/default/debug/_ext/308758920/usb_host_scsi.o
 .debug_aranges
                0x0000000000000a88       0x98 build/default/debug/_ext/308758920/usb_host_msd.o
 .debug_aranges
                0x0000000000000b20      0x140 build/default/debug/_ext/1535495969/drv_usb_ehci.o
 .debug_aranges
                0x0000000000000c60       0x18 build/default/debug/_ext/1171490990/usb_host_init_data.o
 .debug_aranges
                0x0000000000000c78       0x38 build/default/debug/_ext/1171490990/fault_handlers.o
 .debug_aranges
                0x0000000000000cb0       0x60 build/default/debug/_ext/60177924/plib_pio.o
 .debug_aranges
                0x0000000000000d10       0xc8 build/default/debug/_ext/1269487135/sys_fs_media_manager.o
 .debug_aranges
                0x0000000000000dd8       0x20 build/default/debug/_ext/1171490990/interrupts.o
 .debug_aranges
                0x0000000000000df8      0x180 build/default/debug/_ext/1269487135/sys_fs.o
 .debug_aranges
                0x0000000000000f78       0x28 build/default/debug/_ext/163028504/xc32_monitor.o
 .debug_aranges
                0x0000000000000fa0       0x30 build/default/debug/_ext/411819097/ffunicode.o
 .debug_aranges
                0x0000000000000fd0       0x70 build/default/debug/_ext/60165520/plib_clk.o
 .debug_aranges
                0x0000000000001040       0x88 build/default/debug/_ext/60175171/plib_mmu.o
 .debug_aranges
                0x00000000000010c8      0x158 build/default/debug/_ext/101884895/sys_time.o
 .debug_aranges
                0x0000000000001220       0x60 build/default/debug/_ext/565198302/diskio.o
 .debug_aranges
                0x0000000000001280       0x70 build/default/debug/_ext/1865657120/plib_uart1.o
 .debug_aranges
                0x00000000000012f0       0x20 c:/program files/microchip/xc32/v4.60/bin/bin/../../lib/gcc/pic32c/8.3.1/thumb/v7-a+simd/hard\libgcc.a(_udivsi3.o)
 .debug_aranges
                0x0000000000001310       0x20 c:/program files/microchip/xc32/v4.60/bin/bin/../../lib/gcc/pic32c/8.3.1/thumb/v7-a+simd/hard\libgcc.a(_divsi3.o)
 .debug_aranges
                0x0000000000001330       0x20 c:/program files/microchip/xc32/v4.60/bin/bin/../../lib/gcc/pic32c/8.3.1/thumb/v7-a+simd/hard\libgcc.a(_dvmd_tls.o)
 .debug_aranges
                0x0000000000001350       0x20 c:/program files/microchip/xc32/v4.60/bin/bin/../../lib/gcc/pic32c/8.3.1/thumb/v7-a+simd/hard\libgcc.a(_aeabi_uldivmod.o)
 .debug_aranges
                0x0000000000001370       0x20 c:/program files/microchip/xc32/v4.60/bin/bin/../../lib/gcc/pic32c/8.3.1/thumb/v7-a+simd/hard\libgcc.a(_udivmoddi4.o)
 .debug_aranges
                0x0000000000001390       0x20 c:/program files/microchip/xc32/v4.60/bin/bin/../../lib/gcc/pic32c/8.3.1/../../../../pic32c/lib/thumb/v7-a+simd/hard\libc-size-musl.a(memcmp.o)
 .debug_aranges
                0x00000000000013b0       0x20 c:/program files/microchip/xc32/v4.60/bin/bin/../../lib/gcc/pic32c/8.3.1/../../../../pic32c/lib/thumb/v7-a+simd/hard\libc-size-musl.a(memcpy.o)
 .debug_aranges
                0x00000000000013d0       0x20 c:/program files/microchip/xc32/v4.60/bin/bin/../../lib/gcc/pic32c/8.3.1/../../../../pic32c/lib/thumb/v7-a+simd/hard\libc-size-musl.a(memmove.o)
 .debug_aranges
                0x00000000000013f0       0x20 c:/program files/microchip/xc32/v4.60/bin/bin/../../lib/gcc/pic32c/8.3.1/../../../../pic32c/lib/thumb/v7-a+simd/hard\libc-size-musl.a(memset.o)
 .debug_aranges
                0x0000000000001410       0x20 c:/program files/microchip/xc32/v4.60/bin/bin/../../lib/gcc/pic32c/8.3.1/../../../../pic32c/lib/thumb/v7-a+simd/hard\libc-size-musl.a(strlen.o)
 .debug_aranges
                0x0000000000001430       0x20 c:/program files/microchip/xc32/v4.60/bin/bin/../../lib/gcc/pic32c/8.3.1/../../../../pic32c/lib/thumb/v7-a+simd/hard\libc-size-musl.a(strchr.o)
 .debug_aranges
                0x0000000000001450       0x20 c:/program files/microchip/xc32/v4.60/bin/bin/../../lib/gcc/pic32c/8.3.1/../../../../pic32c/lib/thumb/v7-a+simd/hard\libc-size-musl.a(strchrnul.o)
 .debug_aranges
                0x0000000000001470       0x20 c:/program files/microchip/xc32/v4.60/bin/bin/../../lib/gcc/pic32c/8.3.1/../../../../pic32c/lib/thumb/v7-a+simd/hard\libc-size-musl.a(strcmp.o)
 .debug_aranges
                0x0000000000001490       0x20 c:/program files/microchip/xc32/v4.60/bin/bin/../../lib/gcc/pic32c/8.3.1/../../../../pic32c/lib/thumb/v7-a+simd/hard\libc-size-musl.a(strncmp.o)
 .debug_aranges
                0x00000000000014b0       0x30 c:/program files/microchip/xc32/v4.60/bin/bin/../../lib/gcc/pic32c/8.3.1/../../../../pic32c/lib/thumb/v7-a+simd/hard\liblmalloc-musl.a(lite_free.o)
 .debug_aranges
                0x00000000000014e0       0x20 c:/program files/microchip/xc32/v4.60/bin/bin/../../lib/gcc/pic32c/8.3.1/../../../../pic32c/lib/thumb/v7-a+simd/hard\liblmalloc-musl.a(lite_malloc.o)
 .debug_aranges
                0x0000000000001500       0x28 c:/program files/microchip/xc32/v4.60/bin/bin/../../lib/gcc/pic32c/8.3.1/../../../../pic32c/lib/thumb/v7-a+simd/hard\libg-musl.a(__libc_start_main.o)
 .debug_aranges
                0x0000000000001528       0x18 c:/program files/microchip/xc32/v4.60/bin/bin/../../lib/gcc/pic32c/8.3.1/../../../../pic32c/lib/thumb/v7-a+simd/hard\libg-musl.a(__errno_location.o)
 .debug_aranges
                0x0000000000001540       0x18 c:/program files/microchip/xc32/v4.60/bin/bin/../../lib/gcc/pic32c/8.3.1/../../../../pic32c/lib/thumb/v7-a+simd/hard\libg-musl.a(libc.o)
 .debug_aranges
                0x0000000000001558       0x20 c:/program files/microchip/xc32/v4.60/bin/bin/../../lib/gcc/pic32c/8.3.1/../../../../pic32c/lib/thumb/v7-a+simd/hard\libg-musl.a(expand_heap.o)
 .debug_aranges
                0x0000000000001578       0x28 c:/program files/microchip/xc32/v4.60/bin/bin/../../lib/gcc/pic32c/8.3.1/../../../../pic32c/lib/thumb/v7-a+simd/hard\libg-musl.a(__sio_printf_dn.o)
 .debug_aranges
                0x00000000000015a0       0x20 c:/program files/microchip/xc32/v4.60/bin/bin/../../lib/gcc/pic32c/8.3.1/../../../../pic32c/lib/thumb/v7-a+simd/hard\libg-musl.a(__fmt_d.o)
 .debug_aranges
                0x00000000000015c0       0x20 c:/program files/microchip/xc32/v4.60/bin/bin/../../lib/gcc/pic32c/8.3.1/../../../../pic32c/lib/thumb/v7-a+simd/hard\libg-musl.a(__pop_int.o)
 .debug_aranges
                0x00000000000015e0       0x20 c:/program files/microchip/xc32/v4.60/bin/bin/../../lib/gcc/pic32c/8.3.1/../../../../pic32c/lib/thumb/v7-a+simd/hard\libg-musl.a(__pop_ptr.o)
 .debug_aranges
                0x0000000000001600       0x50 c:/program files/microchip/xc32/v4.60/bin/bin/../../lib/gcc/pic32c/8.3.1/../../../../pic32c/lib/thumb/v7-a+simd/hard\libg-musl.a(__printf_core.o)
 .debug_aranges
                0x0000000000001650       0x28 c:/program files/microchip/xc32/v4.60/bin/bin/../../lib/gcc/pic32c/8.3.1/../../../../pic32c/lib/thumb/v7-a+simd/hard\libg-musl.a(stdin.o)
 .debug_aranges
                0x0000000000001678       0x30 c:/program files/microchip/xc32/v4.60/bin/bin/../../lib/gcc/pic32c/8.3.1/../../../../pic32c/lib/thumb/v7-a+simd/hard\libg-musl.a(stdout.o)
 .debug_aranges
                0x00000000000016a8       0x20 c:/program files/microchip/xc32/v4.60/bin/bin/../../lib/gcc/pic32c/8.3.1/../../../../pic32c/lib/thumb/v7-a+simd/hard\libg-musl.a(puts.o)
 .debug_aranges
                0x00000000000016c8       0x20 c:/program files/microchip/xc32/v4.60/bin/bin/../../lib/gcc/pic32c/8.3.1/../../../../pic32c/lib/thumb/v7-a+simd/hard\libg-musl.a(setbuf.o)
 .debug_aranges
                0x00000000000016e8       0x20 c:/program files/microchip/xc32/v4.60/bin/bin/../../lib/gcc/pic32c/8.3.1/../../../../pic32c/lib/thumb/v7-a+simd/hard\libg-musl.a(atoi.o)
 .debug_aranges
                0x0000000000001708       0x28 c:/program files/microchip/xc32/v4.60/bin/bin/../../lib/gcc/pic32c/8.3.1/../../../../pic32c/lib/thumb/v7-a+simd/hard\libg-musl.a(tolower.o)
 .debug_aranges
                0x0000000000001730       0x18 c:/program files/microchip/xc32/v4.60/bin/bin/../../lib/gcc/pic32c/8.3.1/../../../../pic32c/lib/thumb/v7-a+simd/hard\libg-musl.a(__environ.o)
 .debug_aranges
                0x0000000000001748       0x20 c:/program files/microchip/xc32/v4.60/bin/bin/../../lib/gcc/pic32c/8.3.1/../../../../pic32c/lib/thumb/v7-a+simd/hard\libg-musl.a(__int_vfprintf.o)
 .debug_aranges
                0x0000000000001768       0x20 c:/program files/microchip/xc32/v4.60/bin/bin/../../lib/gcc/pic32c/8.3.1/../../../../pic32c/lib/thumb/v7-a+simd/hard\libg-musl.a(fputs.o)
 .debug_aranges
                0x0000000000001788       0x20 c:/program files/microchip/xc32/v4.60/bin/bin/../../lib/gcc/pic32c/8.3.1/../../../../pic32c/lib/thumb/v7-a+simd/hard\libg-musl.a(__cvt_u.o)
 .debug_aranges
                0x00000000000017a8       0x20 c:/program files/microchip/xc32/v4.60/bin/bin/../../lib/gcc/pic32c/8.3.1/../../../../pic32c/lib/thumb/v7-a+simd/hard\libg-musl.a(__pop_float.o)
 .debug_aranges
                0x00000000000017c8       0x20 c:/program files/microchip/xc32/v4.60/bin/bin/../../lib/gcc/pic32c/8.3.1/../../../../pic32c/lib/thumb/v7-a+simd/hard\libg-musl.a(__stdio_read.o)
 .debug_aranges
                0x00000000000017e8       0x20 c:/program files/microchip/xc32/v4.60/bin/bin/../../lib/gcc/pic32c/8.3.1/../../../../pic32c/lib/thumb/v7-a+simd/hard\libg-musl.a(__towrite_rw.o)
 .debug_aranges
                0x0000000000001808       0x28 c:/program files/microchip/xc32/v4.60/bin/bin/../../lib/gcc/pic32c/8.3.1/../../../../pic32c/lib/thumb/v7-a+simd/hard\libg-musl.a(fwrite.o)
 .debug_aranges
                0x0000000000001830       0x30 c:/program files/microchip/xc32/v4.60/bin/bin/../../lib/gcc/pic32c/8.3.1/../../../../pic32c/lib/thumb/v7-a+simd/hard\libg-musl.a(putc.o)
 .debug_aranges
                0x0000000000001860       0x28 c:/program files/microchip/xc32/v4.60/bin/bin/../../lib/gcc/pic32c/8.3.1/../../../../pic32c/lib/thumb/v7-a+simd/hard\libg-musl.a(setvbuf.o)
 .debug_aranges
                0x0000000000001888       0x20 c:/program files/microchip/xc32/v4.60/bin/bin/../../lib/gcc/pic32c/8.3.1/../../../../pic32c/lib/thumb/v7-a+simd/hard\libg-musl.a(readv.o)
 .debug_aranges
                0x00000000000018a8       0x28 c:/program files/microchip/xc32/v4.60/bin/bin/../../lib/gcc/pic32c/8.3.1/../../../../pic32c/lib/thumb/v7-a+simd/hard\libg-musl.a(__init_stdio.o)
 .debug_aranges
                0x00000000000018d0       0x28 c:/program files/microchip/xc32/v4.60/bin/bin/../../lib/gcc/pic32c/8.3.1/../../../../pic32c/lib/thumb/v7-a+simd/hard\libg-musl.a(__out.o)
 .debug_aranges
                0x00000000000018f8       0x20 c:/program files/microchip/xc32/v4.60/bin/bin/../../lib/gcc/pic32c/8.3.1/../../../../pic32c/lib/thumb/v7-a+simd/hard\libg-musl.a(__putc.o)
 .debug_aranges
                0x0000000000001918       0x30 c:/program files/microchip/xc32/v4.60/bin/bin/../../lib/gcc/pic32c/8.3.1/../../../../pic32c/lib/thumb/v7-a+simd/hard\libg-musl.a(__stderr.o)
 .debug_aranges
                0x0000000000001948       0x28 c:/program files/microchip/xc32/v4.60/bin/bin/../../lib/gcc/pic32c/8.3.1/../../../../pic32c/lib/thumb/v7-a+simd/hard\libg-musl.a(__stdio_close.o)
 .debug_aranges
                0x0000000000001970       0x28 c:/program files/microchip/xc32/v4.60/bin/bin/../../lib/gcc/pic32c/8.3.1/../../../../pic32c/lib/thumb/v7-a+simd/hard\libg-musl.a(__stdio_write.o)
 .debug_aranges
                0x0000000000001998       0x30 c:/program files/microchip/xc32/v4.60/bin/bin/../../lib/gcc/pic32c/8.3.1/../../../../pic32c/lib/thumb/v7-a+simd/hard\libg-musl.a(__stdout.o)
 .debug_aranges
                0x00000000000019c8       0x28 c:/program files/microchip/xc32/v4.60/bin/bin/../../lib/gcc/pic32c/8.3.1/../../../../pic32c/lib/thumb/v7-a+simd/hard\libg-musl.a(__towrite.o)
 .debug_aranges
                0x00000000000019f0       0x20 c:/program files/microchip/xc32/v4.60/bin/bin/../../lib/gcc/pic32c/8.3.1/../../../../pic32c/lib/thumb/v7-a+simd/hard\libg-musl.a(writev.o)
 .debug_aranges
                0x0000000000001a10       0x20 c:/program files/microchip/xc32/v4.60/bin/bin/../../lib/gcc/pic32c/8.3.1/../../../../pic32c/lib/thumb/v7-a+simd/hard\libg-musl.a(__overflow.o)
 .debug_aranges
                0x0000000000001a30       0x28 c:/program files/microchip/xc32/v4.60/bin/bin/../../lib/gcc/pic32c/8.3.1/../../../../pic32c/lib/thumb/v7-a+simd/hard\libg-musl.a(__fwrite.o)
 .debug_aranges
                0x0000000000001a58       0x20 c:/program files/microchip/xc32/v4.60/bin/bin/../../lib/gcc/pic32c/8.3.1/../../../../pic32c/lib/thumb/v7-a+simd/hard\libpic32c.a(close.o)
 .debug_aranges
                0x0000000000001a78       0x20 c:/program files/microchip/xc32/v4.60/bin/bin/../../lib/gcc/pic32c/8.3.1/../../../../pic32c/lib/thumb/v7-a+simd/hard\libpic32c.a(lseek.o)
 .debug_aranges
                0x0000000000001a98       0x30 c:/program files/microchip/xc32/v4.60/bin/bin/../../lib/gcc/pic32c/8.3.1/../../../../pic32c/lib/thumb/v7-a+simd/hard\libpic32c.a(sbrk.o)

.debug_ranges   0x0000000000000000     0x1580
 .debug_ranges  0x0000000000000000       0x68 build/default/debug/_ext/1881668453/sys_int.o
 .debug_ranges  0x0000000000000068       0x10 build/default/debug/_ext/1434821282/bsp.o
 .debug_ranges  0x0000000000000078       0x28 build/default/debug/_ext/1171490990/cstartup.o
 .debug_ranges  0x00000000000000a0      0x120 build/default/debug/_ext/1535495969/drv_usb_ohci.o
 .debug_ranges  0x00000000000001c0       0x20 build/default/debug/_ext/1171490990/initialization.o
 .debug_ranges  0x00000000000001e0       0x10 build/default/debug/_ext/1171490990/tasks.o
 .debug_ranges  0x00000000000001f0       0x48 build/default/debug/_ext/60163497/plib_aic.o
 .debug_ranges  0x0000000000000238       0x10 build/default/debug/_ext/1666157715/plib_matrix.o
 .debug_ranges  0x0000000000000248       0x60 build/default/debug/_ext/829342655/plib_tc0.o
 .debug_ranges  0x00000000000002a8      0x1d0 build/default/debug/_ext/308758920/usb_host.o
 .debug_ranges  0x0000000000000478       0x30 build/default/debug/_ext/1360937237/app.o
 .debug_ranges  0x00000000000004a8      0x120 build/default/debug/_ext/1269487135/sys_fs_fat_interface.o
 .debug_ranges  0x00000000000005c8      0x328 build/default/debug/_ext/411819097/ff.o
 .debug_ranges  0x00000000000008f0       0x10 build/default/debug/_ext/1360937237/main.o
 .debug_ranges  0x0000000000000900       0xd0 build/default/debug/_ext/308758920/usb_host_scsi.o
 .debug_ranges  0x00000000000009d0       0x88 build/default/debug/_ext/308758920/usb_host_msd.o
 .debug_ranges  0x0000000000000a58      0x130 build/default/debug/_ext/1535495969/drv_usb_ehci.o
 .debug_ranges  0x0000000000000b88       0x28 build/default/debug/_ext/1171490990/fault_handlers.o
 .debug_ranges  0x0000000000000bb0       0x50 build/default/debug/_ext/60177924/plib_pio.o
 .debug_ranges  0x0000000000000c00       0xb8 build/default/debug/_ext/1269487135/sys_fs_media_manager.o
 .debug_ranges  0x0000000000000cb8       0x10 build/default/debug/_ext/1171490990/interrupts.o
 .debug_ranges  0x0000000000000cc8      0x170 build/default/debug/_ext/1269487135/sys_fs.o
 .debug_ranges  0x0000000000000e38       0x18 build/default/debug/_ext/163028504/xc32_monitor.o
 .debug_ranges  0x0000000000000e50       0x20 build/default/debug/_ext/411819097/ffunicode.o
 .debug_ranges  0x0000000000000e70       0x60 build/default/debug/_ext/60165520/plib_clk.o
 .debug_ranges  0x0000000000000ed0       0x78 build/default/debug/_ext/60175171/plib_mmu.o
 .debug_ranges  0x0000000000000f48      0x148 build/default/debug/_ext/101884895/sys_time.o
 .debug_ranges  0x0000000000001090       0x50 build/default/debug/_ext/565198302/diskio.o
 .debug_ranges  0x00000000000010e0       0x60 build/default/debug/_ext/1865657120/plib_uart1.o
 .debug_ranges  0x0000000000001140       0x10 c:/program files/microchip/xc32/v4.60/bin/bin/../../lib/gcc/pic32c/8.3.1/../../../../pic32c/lib/thumb/v7-a+simd/hard\libc-size-musl.a(memcmp.o)
 .debug_ranges  0x0000000000001150       0x10 c:/program files/microchip/xc32/v4.60/bin/bin/../../lib/gcc/pic32c/8.3.1/../../../../pic32c/lib/thumb/v7-a+simd/hard\libc-size-musl.a(memcpy.o)
 .debug_ranges  0x0000000000001160       0x10 c:/program files/microchip/xc32/v4.60/bin/bin/../../lib/gcc/pic32c/8.3.1/../../../../pic32c/lib/thumb/v7-a+simd/hard\libc-size-musl.a(memmove.o)
 .debug_ranges  0x0000000000001170       0x10 c:/program files/microchip/xc32/v4.60/bin/bin/../../lib/gcc/pic32c/8.3.1/../../../../pic32c/lib/thumb/v7-a+simd/hard\libc-size-musl.a(memset.o)
 .debug_ranges  0x0000000000001180       0x10 c:/program files/microchip/xc32/v4.60/bin/bin/../../lib/gcc/pic32c/8.3.1/../../../../pic32c/lib/thumb/v7-a+simd/hard\libc-size-musl.a(strlen.o)
 .debug_ranges  0x0000000000001190       0x10 c:/program files/microchip/xc32/v4.60/bin/bin/../../lib/gcc/pic32c/8.3.1/../../../../pic32c/lib/thumb/v7-a+simd/hard\libc-size-musl.a(strchr.o)
 .debug_ranges  0x00000000000011a0       0x10 c:/program files/microchip/xc32/v4.60/bin/bin/../../lib/gcc/pic32c/8.3.1/../../../../pic32c/lib/thumb/v7-a+simd/hard\libc-size-musl.a(strchrnul.o)
 .debug_ranges  0x00000000000011b0       0x10 c:/program files/microchip/xc32/v4.60/bin/bin/../../lib/gcc/pic32c/8.3.1/../../../../pic32c/lib/thumb/v7-a+simd/hard\libc-size-musl.a(strcmp.o)
 .debug_ranges  0x00000000000011c0       0x10 c:/program files/microchip/xc32/v4.60/bin/bin/../../lib/gcc/pic32c/8.3.1/../../../../pic32c/lib/thumb/v7-a+simd/hard\libc-size-musl.a(strncmp.o)
 .debug_ranges  0x00000000000011d0       0x20 c:/program files/microchip/xc32/v4.60/bin/bin/../../lib/gcc/pic32c/8.3.1/../../../../pic32c/lib/thumb/v7-a+simd/hard\liblmalloc-musl.a(lite_free.o)
 .debug_ranges  0x00000000000011f0       0x10 c:/program files/microchip/xc32/v4.60/bin/bin/../../lib/gcc/pic32c/8.3.1/../../../../pic32c/lib/thumb/v7-a+simd/hard\liblmalloc-musl.a(lite_malloc.o)
 .debug_ranges  0x0000000000001200       0x38 c:/program files/microchip/xc32/v4.60/bin/bin/../../lib/gcc/pic32c/8.3.1/../../../../pic32c/lib/thumb/v7-a+simd/hard\libg-musl.a(__libc_start_main.o)
 .debug_ranges  0x0000000000001238       0x10 c:/program files/microchip/xc32/v4.60/bin/bin/../../lib/gcc/pic32c/8.3.1/../../../../pic32c/lib/thumb/v7-a+simd/hard\libg-musl.a(expand_heap.o)
 .debug_ranges  0x0000000000001248       0x18 c:/program files/microchip/xc32/v4.60/bin/bin/../../lib/gcc/pic32c/8.3.1/../../../../pic32c/lib/thumb/v7-a+simd/hard\libg-musl.a(__sio_printf_dn.o)
 .debug_ranges  0x0000000000001260       0x10 c:/program files/microchip/xc32/v4.60/bin/bin/../../lib/gcc/pic32c/8.3.1/../../../../pic32c/lib/thumb/v7-a+simd/hard\libg-musl.a(__fmt_d.o)
 .debug_ranges  0x0000000000001270       0x10 c:/program files/microchip/xc32/v4.60/bin/bin/../../lib/gcc/pic32c/8.3.1/../../../../pic32c/lib/thumb/v7-a+simd/hard\libg-musl.a(__pop_int.o)
 .debug_ranges  0x0000000000001280       0x10 c:/program files/microchip/xc32/v4.60/bin/bin/../../lib/gcc/pic32c/8.3.1/../../../../pic32c/lib/thumb/v7-a+simd/hard\libg-musl.a(__pop_ptr.o)
 .debug_ranges  0x0000000000001290       0x58 c:/program files/microchip/xc32/v4.60/bin/bin/../../lib/gcc/pic32c/8.3.1/../../../../pic32c/lib/thumb/v7-a+simd/hard\libg-musl.a(__printf_core.o)
 .debug_ranges  0x00000000000012e8       0x18 c:/program files/microchip/xc32/v4.60/bin/bin/../../lib/gcc/pic32c/8.3.1/../../../../pic32c/lib/thumb/v7-a+simd/hard\libg-musl.a(stdin.o)
 .debug_ranges  0x0000000000001300       0x20 c:/program files/microchip/xc32/v4.60/bin/bin/../../lib/gcc/pic32c/8.3.1/../../../../pic32c/lib/thumb/v7-a+simd/hard\libg-musl.a(stdout.o)
 .debug_ranges  0x0000000000001320       0x10 c:/program files/microchip/xc32/v4.60/bin/bin/../../lib/gcc/pic32c/8.3.1/../../../../pic32c/lib/thumb/v7-a+simd/hard\libg-musl.a(puts.o)
 .debug_ranges  0x0000000000001330       0x10 c:/program files/microchip/xc32/v4.60/bin/bin/../../lib/gcc/pic32c/8.3.1/../../../../pic32c/lib/thumb/v7-a+simd/hard\libg-musl.a(setbuf.o)
 .debug_ranges  0x0000000000001340       0x10 c:/program files/microchip/xc32/v4.60/bin/bin/../../lib/gcc/pic32c/8.3.1/../../../../pic32c/lib/thumb/v7-a+simd/hard\libg-musl.a(atoi.o)
 .debug_ranges  0x0000000000001350       0x18 c:/program files/microchip/xc32/v4.60/bin/bin/../../lib/gcc/pic32c/8.3.1/../../../../pic32c/lib/thumb/v7-a+simd/hard\libg-musl.a(tolower.o)
 .debug_ranges  0x0000000000001368       0x10 c:/program files/microchip/xc32/v4.60/bin/bin/../../lib/gcc/pic32c/8.3.1/../../../../pic32c/lib/thumb/v7-a+simd/hard\libg-musl.a(__int_vfprintf.o)
 .debug_ranges  0x0000000000001378       0x10 c:/program files/microchip/xc32/v4.60/bin/bin/../../lib/gcc/pic32c/8.3.1/../../../../pic32c/lib/thumb/v7-a+simd/hard\libg-musl.a(fputs.o)
 .debug_ranges  0x0000000000001388       0x10 c:/program files/microchip/xc32/v4.60/bin/bin/../../lib/gcc/pic32c/8.3.1/../../../../pic32c/lib/thumb/v7-a+simd/hard\libg-musl.a(__cvt_u.o)
 .debug_ranges  0x0000000000001398       0x10 c:/program files/microchip/xc32/v4.60/bin/bin/../../lib/gcc/pic32c/8.3.1/../../../../pic32c/lib/thumb/v7-a+simd/hard\libg-musl.a(__pop_float.o)
 .debug_ranges  0x00000000000013a8       0x10 c:/program files/microchip/xc32/v4.60/bin/bin/../../lib/gcc/pic32c/8.3.1/../../../../pic32c/lib/thumb/v7-a+simd/hard\libg-musl.a(__stdio_read.o)
 .debug_ranges  0x00000000000013b8       0x10 c:/program files/microchip/xc32/v4.60/bin/bin/../../lib/gcc/pic32c/8.3.1/../../../../pic32c/lib/thumb/v7-a+simd/hard\libg-musl.a(__towrite_rw.o)
 .debug_ranges  0x00000000000013c8       0x18 c:/program files/microchip/xc32/v4.60/bin/bin/../../lib/gcc/pic32c/8.3.1/../../../../pic32c/lib/thumb/v7-a+simd/hard\libg-musl.a(fwrite.o)
 .debug_ranges  0x00000000000013e0       0x20 c:/program files/microchip/xc32/v4.60/bin/bin/../../lib/gcc/pic32c/8.3.1/../../../../pic32c/lib/thumb/v7-a+simd/hard\libg-musl.a(putc.o)
 .debug_ranges  0x0000000000001400       0x18 c:/program files/microchip/xc32/v4.60/bin/bin/../../lib/gcc/pic32c/8.3.1/../../../../pic32c/lib/thumb/v7-a+simd/hard\libg-musl.a(setvbuf.o)
 .debug_ranges  0x0000000000001418       0x10 c:/program files/microchip/xc32/v4.60/bin/bin/../../lib/gcc/pic32c/8.3.1/../../../../pic32c/lib/thumb/v7-a+simd/hard\libg-musl.a(readv.o)
 .debug_ranges  0x0000000000001428       0x18 c:/program files/microchip/xc32/v4.60/bin/bin/../../lib/gcc/pic32c/8.3.1/../../../../pic32c/lib/thumb/v7-a+simd/hard\libg-musl.a(__init_stdio.o)
 .debug_ranges  0x0000000000001440       0x18 c:/program files/microchip/xc32/v4.60/bin/bin/../../lib/gcc/pic32c/8.3.1/../../../../pic32c/lib/thumb/v7-a+simd/hard\libg-musl.a(__out.o)
 .debug_ranges  0x0000000000001458       0x10 c:/program files/microchip/xc32/v4.60/bin/bin/../../lib/gcc/pic32c/8.3.1/../../../../pic32c/lib/thumb/v7-a+simd/hard\libg-musl.a(__putc.o)
 .debug_ranges  0x0000000000001468       0x20 c:/program files/microchip/xc32/v4.60/bin/bin/../../lib/gcc/pic32c/8.3.1/../../../../pic32c/lib/thumb/v7-a+simd/hard\libg-musl.a(__stderr.o)
 .debug_ranges  0x0000000000001488       0x18 c:/program files/microchip/xc32/v4.60/bin/bin/../../lib/gcc/pic32c/8.3.1/../../../../pic32c/lib/thumb/v7-a+simd/hard\libg-musl.a(__stdio_close.o)
 .debug_ranges  0x00000000000014a0       0x30 c:/program files/microchip/xc32/v4.60/bin/bin/../../lib/gcc/pic32c/8.3.1/../../../../pic32c/lib/thumb/v7-a+simd/hard\libg-musl.a(__stdio_write.o)
 .debug_ranges  0x00000000000014d0       0x20 c:/program files/microchip/xc32/v4.60/bin/bin/../../lib/gcc/pic32c/8.3.1/../../../../pic32c/lib/thumb/v7-a+simd/hard\libg-musl.a(__stdout.o)
 .debug_ranges  0x00000000000014f0       0x18 c:/program files/microchip/xc32/v4.60/bin/bin/../../lib/gcc/pic32c/8.3.1/../../../../pic32c/lib/thumb/v7-a+simd/hard\libg-musl.a(__towrite.o)
 .debug_ranges  0x0000000000001508       0x10 c:/program files/microchip/xc32/v4.60/bin/bin/../../lib/gcc/pic32c/8.3.1/../../../../pic32c/lib/thumb/v7-a+simd/hard\libg-musl.a(writev.o)
 .debug_ranges  0x0000000000001518       0x10 c:/program files/microchip/xc32/v4.60/bin/bin/../../lib/gcc/pic32c/8.3.1/../../../../pic32c/lib/thumb/v7-a+simd/hard\libg-musl.a(__overflow.o)
 .debug_ranges  0x0000000000001528       0x18 c:/program files/microchip/xc32/v4.60/bin/bin/../../lib/gcc/pic32c/8.3.1/../../../../pic32c/lib/thumb/v7-a+simd/hard\libg-musl.a(__fwrite.o)
 .debug_ranges  0x0000000000001540       0x10 c:/program files/microchip/xc32/v4.60/bin/bin/../../lib/gcc/pic32c/8.3.1/../../../../pic32c/lib/thumb/v7-a+simd/hard\libpic32c.a(close.o)
 .debug_ranges  0x0000000000001550       0x10 c:/program files/microchip/xc32/v4.60/bin/bin/../../lib/gcc/pic32c/8.3.1/../../../../pic32c/lib/thumb/v7-a+simd/hard\libpic32c.a(lseek.o)
 .debug_ranges  0x0000000000001560       0x20 c:/program files/microchip/xc32/v4.60/bin/bin/../../lib/gcc/pic32c/8.3.1/../../../../pic32c/lib/thumb/v7-a+simd/hard\libpic32c.a(sbrk.o)

.debug_line     0x0000000000000000    0x17f27
 .debug_line    0x0000000000000000      0x377 build/default/debug/_ext/1881668453/sys_int.o
 .debug_line    0x0000000000000377       0xdb build/default/debug/_ext/1434821282/bsp.o
 .debug_line    0x0000000000000452      0x107 build/default/debug/_ext/1171490990/cstartup.o
 .debug_line    0x0000000000000559     0x1b18 build/default/debug/_ext/1535495969/drv_usb_ohci.o
 .debug_line    0x0000000000002071      0x3ba build/default/debug/_ext/1171490990/initialization.o
 .debug_line    0x000000000000242b       0xea build/default/debug/_ext/1171490990/tasks.o
 .debug_line    0x0000000000002515      0x3f9 build/default/debug/_ext/60163497/plib_aic.o
 .debug_line    0x000000000000290e      0x11f build/default/debug/_ext/1666157715/plib_matrix.o
 .debug_line    0x0000000000002a2d      0x22f build/default/debug/_ext/829342655/plib_tc0.o
 .debug_line    0x0000000000002c5c     0x26b4 build/default/debug/_ext/308758920/usb_host.o
 .debug_line    0x0000000000005310      0x3f5 build/default/debug/_ext/1360937237/app.o
 .debug_line    0x0000000000005705      0x748 build/default/debug/_ext/1269487135/sys_fs_fat_interface.o
 .debug_line    0x0000000000005e4d     0x458a build/default/debug/_ext/411819097/ff.o
 .debug_line    0x000000000000a3d7       0x47 build/default/debug/_ext/1360937237/main.o
 .debug_line    0x000000000000a41e      0xc50 build/default/debug/_ext/308758920/usb_host_scsi.o
 .debug_line    0x000000000000b06e      0x9a2 build/default/debug/_ext/308758920/usb_host_msd.o
 .debug_line    0x000000000000ba10     0x1bbe build/default/debug/_ext/1535495969/drv_usb_ehci.o
 .debug_line    0x000000000000d5ce      0x261 build/default/debug/_ext/1171490990/usb_host_init_data.o
 .debug_line    0x000000000000d82f       0x97 build/default/debug/_ext/1171490990/fault_handlers.o
 .debug_line    0x000000000000d8c6      0x287 build/default/debug/_ext/60177924/plib_pio.o
 .debug_line    0x000000000000db4d      0xc07 build/default/debug/_ext/1269487135/sys_fs_media_manager.o
 .debug_line    0x000000000000e754       0xa8 build/default/debug/_ext/1171490990/interrupts.o
 .debug_line    0x000000000000e7fc     0x1f1c build/default/debug/_ext/1269487135/sys_fs.o
 .debug_line    0x0000000000010718       0xed build/default/debug/_ext/163028504/xc32_monitor.o
 .debug_line    0x0000000000010805      0x1c6 build/default/debug/_ext/411819097/ffunicode.o
 .debug_line    0x00000000000109cb      0x2d0 build/default/debug/_ext/60165520/plib_clk.o
 .debug_line    0x0000000000010c9b      0xa65 build/default/debug/_ext/60175171/plib_mmu.o
 .debug_line    0x0000000000011700      0xc13 build/default/debug/_ext/101884895/sys_time.o
 .debug_line    0x0000000000012313      0x3bb build/default/debug/_ext/565198302/diskio.o
 .debug_line    0x00000000000126ce      0x324 build/default/debug/_ext/1865657120/plib_uart1.o
 .debug_line    0x00000000000129f2       0xaf c:/program files/microchip/xc32/v4.60/bin/bin/../../lib/gcc/pic32c/8.3.1/thumb/v7-a+simd/hard\libgcc.a(_udivsi3.o)
 .debug_line    0x0000000000012aa1       0xc0 c:/program files/microchip/xc32/v4.60/bin/bin/../../lib/gcc/pic32c/8.3.1/thumb/v7-a+simd/hard\libgcc.a(_divsi3.o)
 .debug_line    0x0000000000012b61       0x91 c:/program files/microchip/xc32/v4.60/bin/bin/../../lib/gcc/pic32c/8.3.1/thumb/v7-a+simd/hard\libgcc.a(_dvmd_tls.o)
 .debug_line    0x0000000000012bf2       0x91 c:/program files/microchip/xc32/v4.60/bin/bin/../../lib/gcc/pic32c/8.3.1/thumb/v7-a+simd/hard\libgcc.a(_aeabi_uldivmod.o)
 .debug_line    0x0000000000012c83      0x17d c:/program files/microchip/xc32/v4.60/bin/bin/../../lib/gcc/pic32c/8.3.1/thumb/v7-a+simd/hard\libgcc.a(_udivmoddi4.o)
 .debug_line    0x0000000000012e00       0xdf c:/program files/microchip/xc32/v4.60/bin/bin/../../lib/gcc/pic32c/8.3.1/../../../../pic32c/lib/thumb/v7-a+simd/hard\libc-size-musl.a(memcmp.o)
 .debug_line    0x0000000000012edf       0xfe c:/program files/microchip/xc32/v4.60/bin/bin/../../lib/gcc/pic32c/8.3.1/../../../../pic32c/lib/thumb/v7-a+simd/hard\libc-size-musl.a(memcpy.o)
 .debug_line    0x0000000000012fdd      0x120 c:/program files/microchip/xc32/v4.60/bin/bin/../../lib/gcc/pic32c/8.3.1/../../../../pic32c/lib/thumb/v7-a+simd/hard\libc-size-musl.a(memmove.o)
 .debug_line    0x00000000000130fd       0xe3 c:/program files/microchip/xc32/v4.60/bin/bin/../../lib/gcc/pic32c/8.3.1/../../../../pic32c/lib/thumb/v7-a+simd/hard\libc-size-musl.a(memset.o)
 .debug_line    0x00000000000131e0       0xe6 c:/program files/microchip/xc32/v4.60/bin/bin/../../lib/gcc/pic32c/8.3.1/../../../../pic32c/lib/thumb/v7-a+simd/hard\libc-size-musl.a(strlen.o)
 .debug_line    0x00000000000132c6       0xb3 c:/program files/microchip/xc32/v4.60/bin/bin/../../lib/gcc/pic32c/8.3.1/../../../../pic32c/lib/thumb/v7-a+simd/hard\libc-size-musl.a(strchr.o)
 .debug_line    0x0000000000013379      0x186 c:/program files/microchip/xc32/v4.60/bin/bin/../../lib/gcc/pic32c/8.3.1/../../../../pic32c/lib/thumb/v7-a+simd/hard\libc-size-musl.a(strchrnul.o)
 .debug_line    0x00000000000134ff       0xb7 c:/program files/microchip/xc32/v4.60/bin/bin/../../lib/gcc/pic32c/8.3.1/../../../../pic32c/lib/thumb/v7-a+simd/hard\libc-size-musl.a(strcmp.o)
 .debug_line    0x00000000000135b6       0xeb c:/program files/microchip/xc32/v4.60/bin/bin/../../lib/gcc/pic32c/8.3.1/../../../../pic32c/lib/thumb/v7-a+simd/hard\libc-size-musl.a(strncmp.o)
 .debug_line    0x00000000000136a1      0x262 c:/program files/microchip/xc32/v4.60/bin/bin/../../lib/gcc/pic32c/8.3.1/../../../../pic32c/lib/thumb/v7-a+simd/hard\liblmalloc-musl.a(lite_free.o)
 .debug_line    0x0000000000013903      0x1c9 c:/program files/microchip/xc32/v4.60/bin/bin/../../lib/gcc/pic32c/8.3.1/../../../../pic32c/lib/thumb/v7-a+simd/hard\liblmalloc-musl.a(lite_malloc.o)
 .debug_line    0x0000000000013acc      0x1c0 c:/program files/microchip/xc32/v4.60/bin/bin/../../lib/gcc/pic32c/8.3.1/../../../../pic32c/lib/thumb/v7-a+simd/hard\libg-musl.a(__libc_start_main.o)
 .debug_line    0x0000000000013c8c       0x9a c:/program files/microchip/xc32/v4.60/bin/bin/../../lib/gcc/pic32c/8.3.1/../../../../pic32c/lib/thumb/v7-a+simd/hard\libg-musl.a(__errno_location.o)
 .debug_line    0x0000000000013d26       0xb5 c:/program files/microchip/xc32/v4.60/bin/bin/../../lib/gcc/pic32c/8.3.1/../../../../pic32c/lib/thumb/v7-a+simd/hard\libg-musl.a(libc.o)
 .debug_line    0x0000000000013ddb       0xec c:/program files/microchip/xc32/v4.60/bin/bin/../../lib/gcc/pic32c/8.3.1/../../../../pic32c/lib/thumb/v7-a+simd/hard\libg-musl.a(expand_heap.o)
 .debug_line    0x0000000000013ec7      0x1b3 c:/program files/microchip/xc32/v4.60/bin/bin/../../lib/gcc/pic32c/8.3.1/../../../../pic32c/lib/thumb/v7-a+simd/hard\libg-musl.a(__sio_printf_dn.o)
 .debug_line    0x000000000001407a      0x1fe c:/program files/microchip/xc32/v4.60/bin/bin/../../lib/gcc/pic32c/8.3.1/../../../../pic32c/lib/thumb/v7-a+simd/hard\libg-musl.a(__fmt_d.o)
 .debug_line    0x0000000000014278      0x200 c:/program files/microchip/xc32/v4.60/bin/bin/../../lib/gcc/pic32c/8.3.1/../../../../pic32c/lib/thumb/v7-a+simd/hard\libg-musl.a(__pop_int.o)
 .debug_line    0x0000000000014478      0x1e5 c:/program files/microchip/xc32/v4.60/bin/bin/../../lib/gcc/pic32c/8.3.1/../../../../pic32c/lib/thumb/v7-a+simd/hard\libg-musl.a(__pop_ptr.o)
 .debug_line    0x000000000001465d      0x67e c:/program files/microchip/xc32/v4.60/bin/bin/../../lib/gcc/pic32c/8.3.1/../../../../pic32c/lib/thumb/v7-a+simd/hard\libg-musl.a(__printf_core.o)
 .debug_line    0x0000000000014cdb      0x1c5 c:/program files/microchip/xc32/v4.60/bin/bin/../../lib/gcc/pic32c/8.3.1/../../../../pic32c/lib/thumb/v7-a+simd/hard\libg-musl.a(stdin.o)
 .debug_line    0x0000000000014ea0      0x181 c:/program files/microchip/xc32/v4.60/bin/bin/../../lib/gcc/pic32c/8.3.1/../../../../pic32c/lib/thumb/v7-a+simd/hard\libg-musl.a(stdout.o)
 .debug_line    0x0000000000015021      0x1c7 c:/program files/microchip/xc32/v4.60/bin/bin/../../lib/gcc/pic32c/8.3.1/../../../../pic32c/lib/thumb/v7-a+simd/hard\libg-musl.a(puts.o)
 .debug_line    0x00000000000151e8      0x12b c:/program files/microchip/xc32/v4.60/bin/bin/../../lib/gcc/pic32c/8.3.1/../../../../pic32c/lib/thumb/v7-a+simd/hard\libg-musl.a(setbuf.o)
 .debug_line    0x0000000000015313      0x163 c:/program files/microchip/xc32/v4.60/bin/bin/../../lib/gcc/pic32c/8.3.1/../../../../pic32c/lib/thumb/v7-a+simd/hard\libg-musl.a(atoi.o)
 .debug_line    0x0000000000015476      0x157 c:/program files/microchip/xc32/v4.60/bin/bin/../../lib/gcc/pic32c/8.3.1/../../../../pic32c/lib/thumb/v7-a+simd/hard\libg-musl.a(tolower.o)
 .debug_line    0x00000000000155cd       0xfb c:/program files/microchip/xc32/v4.60/bin/bin/../../lib/gcc/pic32c/8.3.1/../../../../pic32c/lib/thumb/v7-a+simd/hard\libg-musl.a(__environ.o)
 .debug_line    0x00000000000156c8      0x168 c:/program files/microchip/xc32/v4.60/bin/bin/../../lib/gcc/pic32c/8.3.1/../../../../pic32c/lib/thumb/v7-a+simd/hard\libg-musl.a(__int_vfprintf.o)
 .debug_line    0x0000000000015830      0x22e c:/program files/microchip/xc32/v4.60/bin/bin/../../lib/gcc/pic32c/8.3.1/../../../../pic32c/lib/thumb/v7-a+simd/hard\libg-musl.a(fputs.o)
 .debug_line    0x0000000000015a5e      0x1cb c:/program files/microchip/xc32/v4.60/bin/bin/../../lib/gcc/pic32c/8.3.1/../../../../pic32c/lib/thumb/v7-a+simd/hard\libg-musl.a(__cvt_u.o)
 .debug_line    0x0000000000015c29      0x165 c:/program files/microchip/xc32/v4.60/bin/bin/../../lib/gcc/pic32c/8.3.1/../../../../pic32c/lib/thumb/v7-a+simd/hard\libg-musl.a(__pop_float.o)
 .debug_line    0x0000000000015d8e      0x22d c:/program files/microchip/xc32/v4.60/bin/bin/../../lib/gcc/pic32c/8.3.1/../../../../pic32c/lib/thumb/v7-a+simd/hard\libg-musl.a(__stdio_read.o)
 .debug_line    0x0000000000015fbb      0x1e1 c:/program files/microchip/xc32/v4.60/bin/bin/../../lib/gcc/pic32c/8.3.1/../../../../pic32c/lib/thumb/v7-a+simd/hard\libg-musl.a(__towrite_rw.o)
 .debug_line    0x000000000001619c      0x1f1 c:/program files/microchip/xc32/v4.60/bin/bin/../../lib/gcc/pic32c/8.3.1/../../../../pic32c/lib/thumb/v7-a+simd/hard\libg-musl.a(fwrite.o)
 .debug_line    0x000000000001638d      0x197 c:/program files/microchip/xc32/v4.60/bin/bin/../../lib/gcc/pic32c/8.3.1/../../../../pic32c/lib/thumb/v7-a+simd/hard\libg-musl.a(putc.o)
 .debug_line    0x0000000000016524      0x219 c:/program files/microchip/xc32/v4.60/bin/bin/../../lib/gcc/pic32c/8.3.1/../../../../pic32c/lib/thumb/v7-a+simd/hard\libg-musl.a(setvbuf.o)
 .debug_line    0x000000000001673d      0x15b c:/program files/microchip/xc32/v4.60/bin/bin/../../lib/gcc/pic32c/8.3.1/../../../../pic32c/lib/thumb/v7-a+simd/hard\libg-musl.a(readv.o)
 .debug_line    0x0000000000016898       0xc8 c:/program files/microchip/xc32/v4.60/bin/bin/../../lib/gcc/pic32c/8.3.1/../../../../pic32c/lib/thumb/v7-a+simd/hard\libg-musl.a(__init_stdio.o)
 .debug_line    0x0000000000016960      0x28d c:/program files/microchip/xc32/v4.60/bin/bin/../../lib/gcc/pic32c/8.3.1/../../../../pic32c/lib/thumb/v7-a+simd/hard\libg-musl.a(__out.o)
 .debug_line    0x0000000000016bed      0x164 c:/program files/microchip/xc32/v4.60/bin/bin/../../lib/gcc/pic32c/8.3.1/../../../../pic32c/lib/thumb/v7-a+simd/hard\libg-musl.a(__putc.o)
 .debug_line    0x0000000000016d51      0x1d0 c:/program files/microchip/xc32/v4.60/bin/bin/../../lib/gcc/pic32c/8.3.1/../../../../pic32c/lib/thumb/v7-a+simd/hard\libg-musl.a(__stderr.o)
 .debug_line    0x0000000000016f21      0x2dd c:/program files/microchip/xc32/v4.60/bin/bin/../../lib/gcc/pic32c/8.3.1/../../../../pic32c/lib/thumb/v7-a+simd/hard\libg-musl.a(__stdio_close.o)
 .debug_line    0x00000000000171fe      0x328 c:/program files/microchip/xc32/v4.60/bin/bin/../../lib/gcc/pic32c/8.3.1/../../../../pic32c/lib/thumb/v7-a+simd/hard\libg-musl.a(__stdio_write.o)
 .debug_line    0x0000000000017526      0x1d0 c:/program files/microchip/xc32/v4.60/bin/bin/../../lib/gcc/pic32c/8.3.1/../../../../pic32c/lib/thumb/v7-a+simd/hard\libg-musl.a(__stdout.o)
 .debug_line    0x00000000000176f6      0x17d c:/program files/microchip/xc32/v4.60/bin/bin/../../lib/gcc/pic32c/8.3.1/../../../../pic32c/lib/thumb/v7-a+simd/hard\libg-musl.a(__towrite.o)
 .debug_line    0x0000000000017873      0x15c c:/program files/microchip/xc32/v4.60/bin/bin/../../lib/gcc/pic32c/8.3.1/../../../../pic32c/lib/thumb/v7-a+simd/hard\libg-musl.a(writev.o)
 .debug_line    0x00000000000179cf      0x1f2 c:/program files/microchip/xc32/v4.60/bin/bin/../../lib/gcc/pic32c/8.3.1/../../../../pic32c/lib/thumb/v7-a+simd/hard\libg-musl.a(__overflow.o)
 .debug_line    0x0000000000017bc1      0x1e2 c:/program files/microchip/xc32/v4.60/bin/bin/../../lib/gcc/pic32c/8.3.1/../../../../pic32c/lib/thumb/v7-a+simd/hard\libg-musl.a(__fwrite.o)
 .debug_line    0x0000000000017da3       0x59 c:/program files/microchip/xc32/v4.60/bin/bin/../../lib/gcc/pic32c/8.3.1/../../../../pic32c/lib/thumb/v7-a+simd/hard\libpic32c.a(close.o)
 .debug_line    0x0000000000017dfc       0x59 c:/program files/microchip/xc32/v4.60/bin/bin/../../lib/gcc/pic32c/8.3.1/../../../../pic32c/lib/thumb/v7-a+simd/hard\libpic32c.a(lseek.o)
 .debug_line    0x0000000000017e55       0xd2 c:/program files/microchip/xc32/v4.60/bin/bin/../../lib/gcc/pic32c/8.3.1/../../../../pic32c/lib/thumb/v7-a+simd/hard\libpic32c.a(sbrk.o)

.debug_str      0x0000000000000000    0x23680
 .debug_str     0x0000000000000000      0x876 build/default/debug/_ext/1881668453/sys_int.o
 .debug_str     0x0000000000000876      0x4bc build/default/debug/_ext/1434821282/bsp.o
 .debug_str     0x0000000000000d32       0x70 build/default/debug/_ext/1171490990/cstartup.o
 .debug_str     0x0000000000000da2     0x26af build/default/debug/_ext/1535495969/drv_usb_ohci.o
 .debug_str     0x0000000000003451     0x170e build/default/debug/_ext/1171490990/initialization.o
 .debug_str     0x0000000000004b5f      0x303 build/default/debug/_ext/1171490990/tasks.o
 .debug_str     0x0000000000004e62      0xb29 build/default/debug/_ext/60163497/plib_aic.o
 .debug_str     0x000000000000598b      0x4c1 build/default/debug/_ext/1666157715/plib_matrix.o
 .debug_str     0x0000000000005e4c      0x50f build/default/debug/_ext/829342655/plib_tc0.o
 .debug_str     0x000000000000635b     0x39d6 build/default/debug/_ext/308758920/usb_host.o
 .debug_str     0x0000000000009d31      0xdb8 build/default/debug/_ext/1360937237/app.o
 .debug_str     0x000000000000aae9      0x991 build/default/debug/_ext/1269487135/sys_fs_fat_interface.o
 .debug_str     0x000000000000b47a      0xc34 build/default/debug/_ext/411819097/ff.o
 .debug_str     0x000000000000c0ae      0x286 build/default/debug/_ext/1360937237/main.o
 .debug_str     0x000000000000c334     0x1dd0 build/default/debug/_ext/308758920/usb_host_scsi.o
 .debug_str     0x000000000000e104     0x1eb4 build/default/debug/_ext/308758920/usb_host_msd.o
 .debug_str     0x000000000000ffb8     0x2c88 build/default/debug/_ext/1535495969/drv_usb_ehci.o
 .debug_str     0x0000000000012c40     0x1570 build/default/debug/_ext/1171490990/usb_host_init_data.o
 .debug_str     0x00000000000141b0      0x2f6 build/default/debug/_ext/1171490990/fault_handlers.o
 .debug_str     0x00000000000144a6      0x570 build/default/debug/_ext/60177924/plib_pio.o
 .debug_str     0x0000000000014a16     0x140c build/default/debug/_ext/1269487135/sys_fs_media_manager.o
 .debug_str     0x0000000000015e22      0x2cd build/default/debug/_ext/1171490990/interrupts.o
 .debug_str     0x00000000000160ef     0x12d0 build/default/debug/_ext/1269487135/sys_fs.o
 .debug_str     0x00000000000173bf      0x2d3 build/default/debug/_ext/163028504/xc32_monitor.o
 .debug_str     0x0000000000017692      0x2f5 build/default/debug/_ext/411819097/ffunicode.o
 .debug_str     0x0000000000017987      0x689 build/default/debug/_ext/60165520/plib_clk.o
 .debug_str     0x0000000000018010      0x5ad build/default/debug/_ext/60175171/plib_mmu.o
 .debug_str     0x00000000000185bd     0x1011 build/default/debug/_ext/101884895/sys_time.o
 .debug_str     0x00000000000195ce      0x86f build/default/debug/_ext/565198302/diskio.o
 .debug_str     0x0000000000019e3d      0x4c2 build/default/debug/_ext/1865657120/plib_uart1.o
 .debug_str     0x000000000001a2ff       0xdb c:/program files/microchip/xc32/v4.60/bin/bin/../../lib/gcc/pic32c/8.3.1/thumb/v7-a+simd/hard\libgcc.a(_udivsi3.o)
 .debug_str     0x000000000001a3da       0xdb c:/program files/microchip/xc32/v4.60/bin/bin/../../lib/gcc/pic32c/8.3.1/thumb/v7-a+simd/hard\libgcc.a(_divsi3.o)
 .debug_str     0x000000000001a4b5       0xdb c:/program files/microchip/xc32/v4.60/bin/bin/../../lib/gcc/pic32c/8.3.1/thumb/v7-a+simd/hard\libgcc.a(_dvmd_tls.o)
 .debug_str     0x000000000001a590       0xd7 c:/program files/microchip/xc32/v4.60/bin/bin/../../lib/gcc/pic32c/8.3.1/thumb/v7-a+simd/hard\libgcc.a(_aeabi_uldivmod.o)
 .debug_str     0x000000000001a667      0x289 c:/program files/microchip/xc32/v4.60/bin/bin/../../lib/gcc/pic32c/8.3.1/thumb/v7-a+simd/hard\libgcc.a(_udivmoddi4.o)
 .debug_str     0x000000000001a8f0      0x21c c:/program files/microchip/xc32/v4.60/bin/bin/../../lib/gcc/pic32c/8.3.1/../../../../pic32c/lib/thumb/v7-a+simd/hard\libc-size-musl.a(memcmp.o)
 .debug_str     0x000000000001ab0c      0x232 c:/program files/microchip/xc32/v4.60/bin/bin/../../lib/gcc/pic32c/8.3.1/../../../../pic32c/lib/thumb/v7-a+simd/hard\libc-size-musl.a(memcpy.o)
 .debug_str     0x000000000001ad3e      0x239 c:/program files/microchip/xc32/v4.60/bin/bin/../../lib/gcc/pic32c/8.3.1/../../../../pic32c/lib/thumb/v7-a+simd/hard\libc-size-musl.a(memmove.o)
 .debug_str     0x000000000001af77      0x21e c:/program files/microchip/xc32/v4.60/bin/bin/../../lib/gcc/pic32c/8.3.1/../../../../pic32c/lib/thumb/v7-a+simd/hard\libc-size-musl.a(memset.o)
 .debug_str     0x000000000001b195      0x224 c:/program files/microchip/xc32/v4.60/bin/bin/../../lib/gcc/pic32c/8.3.1/../../../../pic32c/lib/thumb/v7-a+simd/hard\libc-size-musl.a(strlen.o)
 .debug_str     0x000000000001b3b9      0x218 c:/program files/microchip/xc32/v4.60/bin/bin/../../lib/gcc/pic32c/8.3.1/../../../../pic32c/lib/thumb/v7-a+simd/hard\libc-size-musl.a(strchr.o)
 .debug_str     0x000000000001b5d1      0x2a3 c:/program files/microchip/xc32/v4.60/bin/bin/../../lib/gcc/pic32c/8.3.1/../../../../pic32c/lib/thumb/v7-a+simd/hard\libc-size-musl.a(strchrnul.o)
 .debug_str     0x000000000001b874      0x20c c:/program files/microchip/xc32/v4.60/bin/bin/../../lib/gcc/pic32c/8.3.1/../../../../pic32c/lib/thumb/v7-a+simd/hard\libc-size-musl.a(strcmp.o)
 .debug_str     0x000000000001ba80      0x223 c:/program files/microchip/xc32/v4.60/bin/bin/../../lib/gcc/pic32c/8.3.1/../../../../pic32c/lib/thumb/v7-a+simd/hard\libc-size-musl.a(strncmp.o)
 .debug_str     0x000000000001bca3      0x30e c:/program files/microchip/xc32/v4.60/bin/bin/../../lib/gcc/pic32c/8.3.1/../../../../pic32c/lib/thumb/v7-a+simd/hard\liblmalloc-musl.a(lite_free.o)
 .debug_str     0x000000000001bfb1      0x30c c:/program files/microchip/xc32/v4.60/bin/bin/../../lib/gcc/pic32c/8.3.1/../../../../pic32c/lib/thumb/v7-a+simd/hard\liblmalloc-musl.a(lite_malloc.o)
 .debug_str     0x000000000001c2bd      0x3d7 c:/program files/microchip/xc32/v4.60/bin/bin/../../lib/gcc/pic32c/8.3.1/../../../../pic32c/lib/thumb/v7-a+simd/hard\libg-musl.a(__libc_start_main.o)
 .debug_str     0x000000000001c694      0x236 c:/program files/microchip/xc32/v4.60/bin/bin/../../lib/gcc/pic32c/8.3.1/../../../../pic32c/lib/thumb/v7-a+simd/hard\libg-musl.a(__errno_location.o)
 .debug_str     0x000000000001c8ca      0x342 c:/program files/microchip/xc32/v4.60/bin/bin/../../lib/gcc/pic32c/8.3.1/../../../../pic32c/lib/thumb/v7-a+simd/hard\libg-musl.a(libc.o)
 .debug_str     0x000000000001cc0c      0x2b2 c:/program files/microchip/xc32/v4.60/bin/bin/../../lib/gcc/pic32c/8.3.1/../../../../pic32c/lib/thumb/v7-a+simd/hard\libg-musl.a(expand_heap.o)
 .debug_str     0x000000000001cebe      0x30d c:/program files/microchip/xc32/v4.60/bin/bin/../../lib/gcc/pic32c/8.3.1/../../../../pic32c/lib/thumb/v7-a+simd/hard\libg-musl.a(__sio_printf_dn.o)
 .debug_str     0x000000000001d1cb      0x302 c:/program files/microchip/xc32/v4.60/bin/bin/../../lib/gcc/pic32c/8.3.1/../../../../pic32c/lib/thumb/v7-a+simd/hard\libg-musl.a(__fmt_d.o)
 .debug_str     0x000000000001d4cd      0x2d8 c:/program files/microchip/xc32/v4.60/bin/bin/../../lib/gcc/pic32c/8.3.1/../../../../pic32c/lib/thumb/v7-a+simd/hard\libg-musl.a(__pop_int.o)
 .debug_str     0x000000000001d7a5      0x2da c:/program files/microchip/xc32/v4.60/bin/bin/../../lib/gcc/pic32c/8.3.1/../../../../pic32c/lib/thumb/v7-a+simd/hard\libg-musl.a(__pop_ptr.o)
 .debug_str     0x000000000001da7f      0x3f4 c:/program files/microchip/xc32/v4.60/bin/bin/../../lib/gcc/pic32c/8.3.1/../../../../pic32c/lib/thumb/v7-a+simd/hard\libg-musl.a(__printf_core.o)
 .debug_str     0x000000000001de73      0x381 c:/program files/microchip/xc32/v4.60/bin/bin/../../lib/gcc/pic32c/8.3.1/../../../../pic32c/lib/thumb/v7-a+simd/hard\libg-musl.a(stdin.o)
 .debug_str     0x000000000001e1f4      0x315 c:/program files/microchip/xc32/v4.60/bin/bin/../../lib/gcc/pic32c/8.3.1/../../../../pic32c/lib/thumb/v7-a+simd/hard\libg-musl.a(stdout.o)
 .debug_str     0x000000000001e509      0x351 c:/program files/microchip/xc32/v4.60/bin/bin/../../lib/gcc/pic32c/8.3.1/../../../../pic32c/lib/thumb/v7-a+simd/hard\libg-musl.a(puts.o)
 .debug_str     0x000000000001e85a      0x22a c:/program files/microchip/xc32/v4.60/bin/bin/../../lib/gcc/pic32c/8.3.1/../../../../pic32c/lib/thumb/v7-a+simd/hard\libg-musl.a(setbuf.o)
 .debug_str     0x000000000001ea84      0x229 c:/program files/microchip/xc32/v4.60/bin/bin/../../lib/gcc/pic32c/8.3.1/../../../../pic32c/lib/thumb/v7-a+simd/hard\libg-musl.a(atoi.o)
 .debug_str     0x000000000001ecad      0x256 c:/program files/microchip/xc32/v4.60/bin/bin/../../lib/gcc/pic32c/8.3.1/../../../../pic32c/lib/thumb/v7-a+simd/hard\libg-musl.a(tolower.o)
 .debug_str     0x000000000001ef03      0x242 c:/program files/microchip/xc32/v4.60/bin/bin/../../lib/gcc/pic32c/8.3.1/../../../../pic32c/lib/thumb/v7-a+simd/hard\libg-musl.a(__environ.o)
 .debug_str     0x000000000001f145      0x2f6 c:/program files/microchip/xc32/v4.60/bin/bin/../../lib/gcc/pic32c/8.3.1/../../../../pic32c/lib/thumb/v7-a+simd/hard\libg-musl.a(__int_vfprintf.o)
 .debug_str     0x000000000001f43b      0x345 c:/program files/microchip/xc32/v4.60/bin/bin/../../lib/gcc/pic32c/8.3.1/../../../../pic32c/lib/thumb/v7-a+simd/hard\libg-musl.a(fputs.o)
 .debug_str     0x000000000001f780      0x2be c:/program files/microchip/xc32/v4.60/bin/bin/../../lib/gcc/pic32c/8.3.1/../../../../pic32c/lib/thumb/v7-a+simd/hard\libg-musl.a(__cvt_u.o)
 .debug_str     0x000000000001fa3e      0x2cd c:/program files/microchip/xc32/v4.60/bin/bin/../../lib/gcc/pic32c/8.3.1/../../../../pic32c/lib/thumb/v7-a+simd/hard\libg-musl.a(__pop_float.o)
 .debug_str     0x000000000001fd0b      0x36f c:/program files/microchip/xc32/v4.60/bin/bin/../../lib/gcc/pic32c/8.3.1/../../../../pic32c/lib/thumb/v7-a+simd/hard\libg-musl.a(__stdio_read.o)
 .debug_str     0x000000000002007a      0x34a c:/program files/microchip/xc32/v4.60/bin/bin/../../lib/gcc/pic32c/8.3.1/../../../../pic32c/lib/thumb/v7-a+simd/hard\libg-musl.a(__towrite_rw.o)
 .debug_str     0x00000000000203c4      0x2e0 c:/program files/microchip/xc32/v4.60/bin/bin/../../lib/gcc/pic32c/8.3.1/../../../../pic32c/lib/thumb/v7-a+simd/hard\libg-musl.a(fwrite.o)
 .debug_str     0x00000000000206a4      0x2f7 c:/program files/microchip/xc32/v4.60/bin/bin/../../lib/gcc/pic32c/8.3.1/../../../../pic32c/lib/thumb/v7-a+simd/hard\libg-musl.a(putc.o)
 .debug_str     0x000000000002099b      0x31f c:/program files/microchip/xc32/v4.60/bin/bin/../../lib/gcc/pic32c/8.3.1/../../../../pic32c/lib/thumb/v7-a+simd/hard\libg-musl.a(setvbuf.o)
 .debug_str     0x0000000000020cba      0x259 c:/program files/microchip/xc32/v4.60/bin/bin/../../lib/gcc/pic32c/8.3.1/../../../../pic32c/lib/thumb/v7-a+simd/hard\libg-musl.a(readv.o)
 .debug_str     0x0000000000020f13      0x2a7 c:/program files/microchip/xc32/v4.60/bin/bin/../../lib/gcc/pic32c/8.3.1/../../../../pic32c/lib/thumb/v7-a+simd/hard\libg-musl.a(__init_stdio.o)
 .debug_str     0x00000000000211ba      0x2e7 c:/program files/microchip/xc32/v4.60/bin/bin/../../lib/gcc/pic32c/8.3.1/../../../../pic32c/lib/thumb/v7-a+simd/hard\libg-musl.a(__out.o)
 .debug_str     0x00000000000214a1      0x305 c:/program files/microchip/xc32/v4.60/bin/bin/../../lib/gcc/pic32c/8.3.1/../../../../pic32c/lib/thumb/v7-a+simd/hard\libg-musl.a(__putc.o)
 .debug_str     0x00000000000217a6      0x37a c:/program files/microchip/xc32/v4.60/bin/bin/../../lib/gcc/pic32c/8.3.1/../../../../pic32c/lib/thumb/v7-a+simd/hard\libg-musl.a(__stderr.o)
 .debug_str     0x0000000000021b20      0x36a c:/program files/microchip/xc32/v4.60/bin/bin/../../lib/gcc/pic32c/8.3.1/../../../../pic32c/lib/thumb/v7-a+simd/hard\libg-musl.a(__stdio_close.o)
 .debug_str     0x0000000000021e8a      0x353 c:/program files/microchip/xc32/v4.60/bin/bin/../../lib/gcc/pic32c/8.3.1/../../../../pic32c/lib/thumb/v7-a+simd/hard\libg-musl.a(__stdio_write.o)
 .debug_str     0x00000000000221dd      0x37a c:/program files/microchip/xc32/v4.60/bin/bin/../../lib/gcc/pic32c/8.3.1/../../../../pic32c/lib/thumb/v7-a+simd/hard\libg-musl.a(__stdout.o)
 .debug_str     0x0000000000022557      0x2f6 c:/program files/microchip/xc32/v4.60/bin/bin/../../lib/gcc/pic32c/8.3.1/../../../../pic32c/lib/thumb/v7-a+simd/hard\libg-musl.a(__towrite.o)
 .debug_str     0x000000000002284d      0x25c c:/program files/microchip/xc32/v4.60/bin/bin/../../lib/gcc/pic32c/8.3.1/../../../../pic32c/lib/thumb/v7-a+simd/hard\libg-musl.a(writev.o)
 .debug_str     0x0000000000022aa9      0x34b c:/program files/microchip/xc32/v4.60/bin/bin/../../lib/gcc/pic32c/8.3.1/../../../../pic32c/lib/thumb/v7-a+simd/hard\libg-musl.a(__overflow.o)
 .debug_str     0x0000000000022df4      0x30f c:/program files/microchip/xc32/v4.60/bin/bin/../../lib/gcc/pic32c/8.3.1/../../../../pic32c/lib/thumb/v7-a+simd/hard\libg-musl.a(__fwrite.o)
 .debug_str     0x0000000000023103      0x1ca c:/program files/microchip/xc32/v4.60/bin/bin/../../lib/gcc/pic32c/8.3.1/../../../../pic32c/lib/thumb/v7-a+simd/hard\libpic32c.a(close.o)
 .debug_str     0x00000000000232cd      0x1ca c:/program files/microchip/xc32/v4.60/bin/bin/../../lib/gcc/pic32c/8.3.1/../../../../pic32c/lib/thumb/v7-a+simd/hard\libpic32c.a(lseek.o)
 .debug_str     0x0000000000023497      0x1e9 c:/program files/microchip/xc32/v4.60/bin/bin/../../lib/gcc/pic32c/8.3.1/../../../../pic32c/lib/thumb/v7-a+simd/hard\libpic32c.a(sbrk.o)

.debug_frame    0x0000000000000000     0x4f28
 .debug_frame   0x0000000000000000      0x188 build/default/debug/_ext/1881668453/sys_int.o
 .debug_frame   0x0000000000000188       0x30 build/default/debug/_ext/1434821282/bsp.o
 .debug_frame   0x00000000000001b8      0x4a0 build/default/debug/_ext/1535495969/drv_usb_ohci.o
 .debug_frame   0x0000000000000658       0x6c build/default/debug/_ext/1171490990/initialization.o
 .debug_frame   0x00000000000006c4       0x2c build/default/debug/_ext/1171490990/tasks.o
 .debug_frame   0x00000000000006f0      0x114 build/default/debug/_ext/60163497/plib_aic.o
 .debug_frame   0x0000000000000804       0x30 build/default/debug/_ext/1666157715/plib_matrix.o
 .debug_frame   0x0000000000000834      0x16c build/default/debug/_ext/829342655/plib_tc0.o
 .debug_frame   0x00000000000009a0      0x790 build/default/debug/_ext/308758920/usb_host.o
 .debug_frame   0x0000000000001130       0xb8 build/default/debug/_ext/1360937237/app.o
 .debug_frame   0x00000000000011e8      0x474 build/default/debug/_ext/1269487135/sys_fs_fat_interface.o
 .debug_frame   0x000000000000165c      0xca8 build/default/debug/_ext/411819097/ff.o
 .debug_frame   0x0000000000002304       0x2c build/default/debug/_ext/1360937237/main.o
 .debug_frame   0x0000000000002330      0x340 build/default/debug/_ext/308758920/usb_host_scsi.o
 .debug_frame   0x0000000000002670      0x224 build/default/debug/_ext/308758920/usb_host_msd.o
 .debug_frame   0x0000000000002894      0x4dc build/default/debug/_ext/1535495969/drv_usb_ehci.o
 .debug_frame   0x0000000000002d70       0x70 build/default/debug/_ext/1171490990/fault_handlers.o
 .debug_frame   0x0000000000002de0      0x130 build/default/debug/_ext/60177924/plib_pio.o
 .debug_frame   0x0000000000002f10      0x2f0 build/default/debug/_ext/1269487135/sys_fs_media_manager.o
 .debug_frame   0x0000000000003200       0x30 build/default/debug/_ext/1171490990/interrupts.o
 .debug_frame   0x0000000000003230      0x5f8 build/default/debug/_ext/1269487135/sys_fs.o
 .debug_frame   0x0000000000003828       0x50 build/default/debug/_ext/163028504/xc32_monitor.o
 .debug_frame   0x0000000000003878       0x70 build/default/debug/_ext/411819097/ffunicode.o
 .debug_frame   0x00000000000038e8      0x16c build/default/debug/_ext/60165520/plib_clk.o
 .debug_frame   0x0000000000003a54      0x1e8 build/default/debug/_ext/60175171/plib_mmu.o
 .debug_frame   0x0000000000003c3c      0x518 build/default/debug/_ext/101884895/sys_time.o
 .debug_frame   0x0000000000004154      0x13c build/default/debug/_ext/565198302/diskio.o
 .debug_frame   0x0000000000004290      0x170 build/default/debug/_ext/1865657120/plib_uart1.o
 .debug_frame   0x0000000000004400       0x20 c:/program files/microchip/xc32/v4.60/bin/bin/../../lib/gcc/pic32c/8.3.1/thumb/v7-a+simd/hard\libgcc.a(_udivsi3.o)
 .debug_frame   0x0000000000004420       0x20 c:/program files/microchip/xc32/v4.60/bin/bin/../../lib/gcc/pic32c/8.3.1/thumb/v7-a+simd/hard\libgcc.a(_divsi3.o)
 .debug_frame   0x0000000000004440       0x2c c:/program files/microchip/xc32/v4.60/bin/bin/../../lib/gcc/pic32c/8.3.1/thumb/v7-a+simd/hard\libgcc.a(_aeabi_uldivmod.o)
 .debug_frame   0x000000000000446c       0x34 c:/program files/microchip/xc32/v4.60/bin/bin/../../lib/gcc/pic32c/8.3.1/thumb/v7-a+simd/hard\libgcc.a(_udivmoddi4.o)
 .debug_frame   0x00000000000044a0       0x2c c:/program files/microchip/xc32/v4.60/bin/bin/../../lib/gcc/pic32c/8.3.1/../../../../pic32c/lib/thumb/v7-a+simd/hard\libc-size-musl.a(memcmp.o)
 .debug_frame   0x00000000000044cc       0x2c c:/program files/microchip/xc32/v4.60/bin/bin/../../lib/gcc/pic32c/8.3.1/../../../../pic32c/lib/thumb/v7-a+simd/hard\libc-size-musl.a(memcpy.o)
 .debug_frame   0x00000000000044f8       0x30 c:/program files/microchip/xc32/v4.60/bin/bin/../../lib/gcc/pic32c/8.3.1/../../../../pic32c/lib/thumb/v7-a+simd/hard\libc-size-musl.a(memmove.o)
 .debug_frame   0x0000000000004528       0x20 c:/program files/microchip/xc32/v4.60/bin/bin/../../lib/gcc/pic32c/8.3.1/../../../../pic32c/lib/thumb/v7-a+simd/hard\libc-size-musl.a(memset.o)
 .debug_frame   0x0000000000004548       0x20 c:/program files/microchip/xc32/v4.60/bin/bin/../../lib/gcc/pic32c/8.3.1/../../../../pic32c/lib/thumb/v7-a+simd/hard\libc-size-musl.a(strlen.o)
 .debug_frame   0x0000000000004568       0x28 c:/program files/microchip/xc32/v4.60/bin/bin/../../lib/gcc/pic32c/8.3.1/../../../../pic32c/lib/thumb/v7-a+simd/hard\libc-size-musl.a(strchr.o)
 .debug_frame   0x0000000000004590       0x30 c:/program files/microchip/xc32/v4.60/bin/bin/../../lib/gcc/pic32c/8.3.1/../../../../pic32c/lib/thumb/v7-a+simd/hard\libc-size-musl.a(strchrnul.o)
 .debug_frame   0x00000000000045c0       0x28 c:/program files/microchip/xc32/v4.60/bin/bin/../../lib/gcc/pic32c/8.3.1/../../../../pic32c/lib/thumb/v7-a+simd/hard\libc-size-musl.a(strcmp.o)
 .debug_frame   0x00000000000045e8       0x2c c:/program files/microchip/xc32/v4.60/bin/bin/../../lib/gcc/pic32c/8.3.1/../../../../pic32c/lib/thumb/v7-a+simd/hard\libc-size-musl.a(strncmp.o)
 .debug_frame   0x0000000000004614       0x5c c:/program files/microchip/xc32/v4.60/bin/bin/../../lib/gcc/pic32c/8.3.1/../../../../pic32c/lib/thumb/v7-a+simd/hard\liblmalloc-musl.a(lite_free.o)
 .debug_frame   0x0000000000004670       0x30 c:/program files/microchip/xc32/v4.60/bin/bin/../../lib/gcc/pic32c/8.3.1/../../../../pic32c/lib/thumb/v7-a+simd/hard\liblmalloc-musl.a(lite_malloc.o)
 .debug_frame   0x00000000000046a0       0x3c c:/program files/microchip/xc32/v4.60/bin/bin/../../lib/gcc/pic32c/8.3.1/../../../../pic32c/lib/thumb/v7-a+simd/hard\libg-musl.a(__libc_start_main.o)
 .debug_frame   0x00000000000046dc       0x28 c:/program files/microchip/xc32/v4.60/bin/bin/../../lib/gcc/pic32c/8.3.1/../../../../pic32c/lib/thumb/v7-a+simd/hard\libg-musl.a(expand_heap.o)
 .debug_frame   0x0000000000004704       0x5c c:/program files/microchip/xc32/v4.60/bin/bin/../../lib/gcc/pic32c/8.3.1/../../../../pic32c/lib/thumb/v7-a+simd/hard\libg-musl.a(__sio_printf_dn.o)
 .debug_frame   0x0000000000004760       0x38 c:/program files/microchip/xc32/v4.60/bin/bin/../../lib/gcc/pic32c/8.3.1/../../../../pic32c/lib/thumb/v7-a+simd/hard\libg-musl.a(__fmt_d.o)
 .debug_frame   0x0000000000004798       0x28 c:/program files/microchip/xc32/v4.60/bin/bin/../../lib/gcc/pic32c/8.3.1/../../../../pic32c/lib/thumb/v7-a+simd/hard\libg-musl.a(__pop_int.o)
 .debug_frame   0x00000000000047c0       0x28 c:/program files/microchip/xc32/v4.60/bin/bin/../../lib/gcc/pic32c/8.3.1/../../../../pic32c/lib/thumb/v7-a+simd/hard\libg-musl.a(__pop_ptr.o)
 .debug_frame   0x00000000000047e8       0xd0 c:/program files/microchip/xc32/v4.60/bin/bin/../../lib/gcc/pic32c/8.3.1/../../../../pic32c/lib/thumb/v7-a+simd/hard\libg-musl.a(__printf_core.o)
 .debug_frame   0x00000000000048b8       0x30 c:/program files/microchip/xc32/v4.60/bin/bin/../../lib/gcc/pic32c/8.3.1/../../../../pic32c/lib/thumb/v7-a+simd/hard\libg-musl.a(stdin.o)
 .debug_frame   0x00000000000048e8       0x48 c:/program files/microchip/xc32/v4.60/bin/bin/../../lib/gcc/pic32c/8.3.1/../../../../pic32c/lib/thumb/v7-a+simd/hard\libg-musl.a(stdout.o)
 .debug_frame   0x0000000000004930       0x28 c:/program files/microchip/xc32/v4.60/bin/bin/../../lib/gcc/pic32c/8.3.1/../../../../pic32c/lib/thumb/v7-a+simd/hard\libg-musl.a(puts.o)
 .debug_frame   0x0000000000004958       0x20 c:/program files/microchip/xc32/v4.60/bin/bin/../../lib/gcc/pic32c/8.3.1/../../../../pic32c/lib/thumb/v7-a+simd/hard\libg-musl.a(setbuf.o)
 .debug_frame   0x0000000000004978       0x28 c:/program files/microchip/xc32/v4.60/bin/bin/../../lib/gcc/pic32c/8.3.1/../../../../pic32c/lib/thumb/v7-a+simd/hard\libg-musl.a(atoi.o)
 .debug_frame   0x00000000000049a0       0x30 c:/program files/microchip/xc32/v4.60/bin/bin/../../lib/gcc/pic32c/8.3.1/../../../../pic32c/lib/thumb/v7-a+simd/hard\libg-musl.a(tolower.o)
 .debug_frame   0x00000000000049d0       0x2c c:/program files/microchip/xc32/v4.60/bin/bin/../../lib/gcc/pic32c/8.3.1/../../../../pic32c/lib/thumb/v7-a+simd/hard\libg-musl.a(__int_vfprintf.o)
 .debug_frame   0x00000000000049fc       0x2c c:/program files/microchip/xc32/v4.60/bin/bin/../../lib/gcc/pic32c/8.3.1/../../../../pic32c/lib/thumb/v7-a+simd/hard\libg-musl.a(fputs.o)
 .debug_frame   0x0000000000004a28       0x48 c:/program files/microchip/xc32/v4.60/bin/bin/../../lib/gcc/pic32c/8.3.1/../../../../pic32c/lib/thumb/v7-a+simd/hard\libg-musl.a(__cvt_u.o)
 .debug_frame   0x0000000000004a70       0x20 c:/program files/microchip/xc32/v4.60/bin/bin/../../lib/gcc/pic32c/8.3.1/../../../../pic32c/lib/thumb/v7-a+simd/hard\libg-musl.a(__pop_float.o)
 .debug_frame   0x0000000000004a90       0x30 c:/program files/microchip/xc32/v4.60/bin/bin/../../lib/gcc/pic32c/8.3.1/../../../../pic32c/lib/thumb/v7-a+simd/hard\libg-musl.a(__stdio_read.o)
 .debug_frame   0x0000000000004ac0       0x20 c:/program files/microchip/xc32/v4.60/bin/bin/../../lib/gcc/pic32c/8.3.1/../../../../pic32c/lib/thumb/v7-a+simd/hard\libg-musl.a(__towrite_rw.o)
 .debug_frame   0x0000000000004ae0       0x3c c:/program files/microchip/xc32/v4.60/bin/bin/../../lib/gcc/pic32c/8.3.1/../../../../pic32c/lib/thumb/v7-a+simd/hard\libg-musl.a(fwrite.o)
 .debug_frame   0x0000000000004b1c       0x54 c:/program files/microchip/xc32/v4.60/bin/bin/../../lib/gcc/pic32c/8.3.1/../../../../pic32c/lib/thumb/v7-a+simd/hard\libg-musl.a(putc.o)
 .debug_frame   0x0000000000004b70       0x3c c:/program files/microchip/xc32/v4.60/bin/bin/../../lib/gcc/pic32c/8.3.1/../../../../pic32c/lib/thumb/v7-a+simd/hard\libg-musl.a(setvbuf.o)
 .debug_frame   0x0000000000004bac       0x30 c:/program files/microchip/xc32/v4.60/bin/bin/../../lib/gcc/pic32c/8.3.1/../../../../pic32c/lib/thumb/v7-a+simd/hard\libg-musl.a(readv.o)
 .debug_frame   0x0000000000004bdc       0x38 c:/program files/microchip/xc32/v4.60/bin/bin/../../lib/gcc/pic32c/8.3.1/../../../../pic32c/lib/thumb/v7-a+simd/hard\libg-musl.a(__init_stdio.o)
 .debug_frame   0x0000000000004c14       0x3c c:/program files/microchip/xc32/v4.60/bin/bin/../../lib/gcc/pic32c/8.3.1/../../../../pic32c/lib/thumb/v7-a+simd/hard\libg-musl.a(__out.o)
 .debug_frame   0x0000000000004c50       0x38 c:/program files/microchip/xc32/v4.60/bin/bin/../../lib/gcc/pic32c/8.3.1/../../../../pic32c/lib/thumb/v7-a+simd/hard\libg-musl.a(__putc.o)
 .debug_frame   0x0000000000004c88       0x40 c:/program files/microchip/xc32/v4.60/bin/bin/../../lib/gcc/pic32c/8.3.1/../../../../pic32c/lib/thumb/v7-a+simd/hard\libg-musl.a(__stderr.o)
 .debug_frame   0x0000000000004cc8       0x60 c:/program files/microchip/xc32/v4.60/bin/bin/../../lib/gcc/pic32c/8.3.1/../../../../pic32c/lib/thumb/v7-a+simd/hard\libg-musl.a(__stdio_close.o)
 .debug_frame   0x0000000000004d28       0x58 c:/program files/microchip/xc32/v4.60/bin/bin/../../lib/gcc/pic32c/8.3.1/../../../../pic32c/lib/thumb/v7-a+simd/hard\libg-musl.a(__stdio_write.o)
 .debug_frame   0x0000000000004d80       0x40 c:/program files/microchip/xc32/v4.60/bin/bin/../../lib/gcc/pic32c/8.3.1/../../../../pic32c/lib/thumb/v7-a+simd/hard\libg-musl.a(__stdout.o)
 .debug_frame   0x0000000000004dc0       0x38 c:/program files/microchip/xc32/v4.60/bin/bin/../../lib/gcc/pic32c/8.3.1/../../../../pic32c/lib/thumb/v7-a+simd/hard\libg-musl.a(__towrite.o)
 .debug_frame   0x0000000000004df8       0x30 c:/program files/microchip/xc32/v4.60/bin/bin/../../lib/gcc/pic32c/8.3.1/../../../../pic32c/lib/thumb/v7-a+simd/hard\libg-musl.a(writev.o)
 .debug_frame   0x0000000000004e28       0x30 c:/program files/microchip/xc32/v4.60/bin/bin/../../lib/gcc/pic32c/8.3.1/../../../../pic32c/lib/thumb/v7-a+simd/hard\libg-musl.a(__overflow.o)
 .debug_frame   0x0000000000004e58       0x40 c:/program files/microchip/xc32/v4.60/bin/bin/../../lib/gcc/pic32c/8.3.1/../../../../pic32c/lib/thumb/v7-a+simd/hard\libg-musl.a(__fwrite.o)
 .debug_frame   0x0000000000004e98       0x20 c:/program files/microchip/xc32/v4.60/bin/bin/../../lib/gcc/pic32c/8.3.1/../../../../pic32c/lib/thumb/v7-a+simd/hard\libpic32c.a(close.o)
 .debug_frame   0x0000000000004eb8       0x20 c:/program files/microchip/xc32/v4.60/bin/bin/../../lib/gcc/pic32c/8.3.1/../../../../pic32c/lib/thumb/v7-a+simd/hard\libpic32c.a(lseek.o)
 .debug_frame   0x0000000000004ed8       0x50 c:/program files/microchip/xc32/v4.60/bin/bin/../../lib/gcc/pic32c/8.3.1/../../../../pic32c/lib/thumb/v7-a+simd/hard\libpic32c.a(sbrk.o)

.note.GNU-stack
                0x0000000000000000        0x0
 .note.GNU-stack
                0x0000000000000000        0x0 c:/program files/microchip/xc32/v4.60/bin/bin/../../lib/gcc/pic32c/8.3.1/../../../../pic32c/lib/thumb/v7-a+simd/hard\libc-size-musl.a(memcmp.o)
 .note.GNU-stack
                0x0000000000000000        0x0 c:/program files/microchip/xc32/v4.60/bin/bin/../../lib/gcc/pic32c/8.3.1/../../../../pic32c/lib/thumb/v7-a+simd/hard\libc-size-musl.a(memcpy.o)
 .note.GNU-stack
                0x0000000000000000        0x0 c:/program files/microchip/xc32/v4.60/bin/bin/../../lib/gcc/pic32c/8.3.1/../../../../pic32c/lib/thumb/v7-a+simd/hard\libc-size-musl.a(memmove.o)
 .note.GNU-stack
                0x0000000000000000        0x0 c:/program files/microchip/xc32/v4.60/bin/bin/../../lib/gcc/pic32c/8.3.1/../../../../pic32c/lib/thumb/v7-a+simd/hard\libc-size-musl.a(memset.o)
 .note.GNU-stack
                0x0000000000000000        0x0 c:/program files/microchip/xc32/v4.60/bin/bin/../../lib/gcc/pic32c/8.3.1/../../../../pic32c/lib/thumb/v7-a+simd/hard\libc-size-musl.a(strlen.o)
 .note.GNU-stack
                0x0000000000000000        0x0 c:/program files/microchip/xc32/v4.60/bin/bin/../../lib/gcc/pic32c/8.3.1/../../../../pic32c/lib/thumb/v7-a+simd/hard\libc-size-musl.a(strchr.o)
 .note.GNU-stack
                0x0000000000000000        0x0 c:/program files/microchip/xc32/v4.60/bin/bin/../../lib/gcc/pic32c/8.3.1/../../../../pic32c/lib/thumb/v7-a+simd/hard\libc-size-musl.a(strchrnul.o)
 .note.GNU-stack
                0x0000000000000000        0x0 c:/program files/microchip/xc32/v4.60/bin/bin/../../lib/gcc/pic32c/8.3.1/../../../../pic32c/lib/thumb/v7-a+simd/hard\libc-size-musl.a(strcmp.o)
 .note.GNU-stack
                0x0000000000000000        0x0 c:/program files/microchip/xc32/v4.60/bin/bin/../../lib/gcc/pic32c/8.3.1/../../../../pic32c/lib/thumb/v7-a+simd/hard\libc-size-musl.a(strncmp.o)
 .note.GNU-stack
                0x0000000000000000        0x0 c:/program files/microchip/xc32/v4.60/bin/bin/../../lib/gcc/pic32c/8.3.1/../../../../pic32c/lib/thumb/v7-a+simd/hard\liblmalloc-musl.a(lite_free.o)
 .note.GNU-stack
                0x0000000000000000        0x0 c:/program files/microchip/xc32/v4.60/bin/bin/../../lib/gcc/pic32c/8.3.1/../../../../pic32c/lib/thumb/v7-a+simd/hard\liblmalloc-musl.a(lite_malloc.o)
 .note.GNU-stack
                0x0000000000000000        0x0 c:/program files/microchip/xc32/v4.60/bin/bin/../../lib/gcc/pic32c/8.3.1/../../../../pic32c/lib/thumb/v7-a+simd/hard\libg-musl.a(__libc_start_main.o)
 .note.GNU-stack
                0x0000000000000000        0x0 c:/program files/microchip/xc32/v4.60/bin/bin/../../lib/gcc/pic32c/8.3.1/../../../../pic32c/lib/thumb/v7-a+simd/hard\libg-musl.a(__errno_location.o)
 .note.GNU-stack
                0x0000000000000000        0x0 c:/program files/microchip/xc32/v4.60/bin/bin/../../lib/gcc/pic32c/8.3.1/../../../../pic32c/lib/thumb/v7-a+simd/hard\libg-musl.a(libc.o)
 .note.GNU-stack
                0x0000000000000000        0x0 c:/program files/microchip/xc32/v4.60/bin/bin/../../lib/gcc/pic32c/8.3.1/../../../../pic32c/lib/thumb/v7-a+simd/hard\libg-musl.a(expand_heap.o)
 .note.GNU-stack
                0x0000000000000000        0x0 c:/program files/microchip/xc32/v4.60/bin/bin/../../lib/gcc/pic32c/8.3.1/../../../../pic32c/lib/thumb/v7-a+simd/hard\libg-musl.a(__sio_printf_dn.o)
 .note.GNU-stack
                0x0000000000000000        0x0 c:/program files/microchip/xc32/v4.60/bin/bin/../../lib/gcc/pic32c/8.3.1/../../../../pic32c/lib/thumb/v7-a+simd/hard\libg-musl.a(__fmt_d.o)
 .note.GNU-stack
                0x0000000000000000        0x0 c:/program files/microchip/xc32/v4.60/bin/bin/../../lib/gcc/pic32c/8.3.1/../../../../pic32c/lib/thumb/v7-a+simd/hard\libg-musl.a(__pop_int.o)
 .note.GNU-stack
                0x0000000000000000        0x0 c:/program files/microchip/xc32/v4.60/bin/bin/../../lib/gcc/pic32c/8.3.1/../../../../pic32c/lib/thumb/v7-a+simd/hard\libg-musl.a(__pop_ptr.o)
 .note.GNU-stack
                0x0000000000000000        0x0 c:/program files/microchip/xc32/v4.60/bin/bin/../../lib/gcc/pic32c/8.3.1/../../../../pic32c/lib/thumb/v7-a+simd/hard\libg-musl.a(__printf_core.o)
 .note.GNU-stack
                0x0000000000000000        0x0 c:/program files/microchip/xc32/v4.60/bin/bin/../../lib/gcc/pic32c/8.3.1/../../../../pic32c/lib/thumb/v7-a+simd/hard\libg-musl.a(stdin.o)
 .note.GNU-stack
                0x0000000000000000        0x0 c:/program files/microchip/xc32/v4.60/bin/bin/../../lib/gcc/pic32c/8.3.1/../../../../pic32c/lib/thumb/v7-a+simd/hard\libg-musl.a(stdout.o)
 .note.GNU-stack
                0x0000000000000000        0x0 c:/program files/microchip/xc32/v4.60/bin/bin/../../lib/gcc/pic32c/8.3.1/../../../../pic32c/lib/thumb/v7-a+simd/hard\libg-musl.a(puts.o)
 .note.GNU-stack
                0x0000000000000000        0x0 c:/program files/microchip/xc32/v4.60/bin/bin/../../lib/gcc/pic32c/8.3.1/../../../../pic32c/lib/thumb/v7-a+simd/hard\libg-musl.a(setbuf.o)
 .note.GNU-stack
                0x0000000000000000        0x0 c:/program files/microchip/xc32/v4.60/bin/bin/../../lib/gcc/pic32c/8.3.1/../../../../pic32c/lib/thumb/v7-a+simd/hard\libg-musl.a(atoi.o)
 .note.GNU-stack
                0x0000000000000000        0x0 c:/program files/microchip/xc32/v4.60/bin/bin/../../lib/gcc/pic32c/8.3.1/../../../../pic32c/lib/thumb/v7-a+simd/hard\libg-musl.a(tolower.o)
 .note.GNU-stack
                0x0000000000000000        0x0 c:/program files/microchip/xc32/v4.60/bin/bin/../../lib/gcc/pic32c/8.3.1/../../../../pic32c/lib/thumb/v7-a+simd/hard\libg-musl.a(__environ.o)
 .note.GNU-stack
                0x0000000000000000        0x0 c:/program files/microchip/xc32/v4.60/bin/bin/../../lib/gcc/pic32c/8.3.1/../../../../pic32c/lib/thumb/v7-a+simd/hard\libg-musl.a(__int_vfprintf.o)
 .note.GNU-stack
                0x0000000000000000        0x0 c:/program files/microchip/xc32/v4.60/bin/bin/../../lib/gcc/pic32c/8.3.1/../../../../pic32c/lib/thumb/v7-a+simd/hard\libg-musl.a(fputs.o)
 .note.GNU-stack
                0x0000000000000000        0x0 c:/program files/microchip/xc32/v4.60/bin/bin/../../lib/gcc/pic32c/8.3.1/../../../../pic32c/lib/thumb/v7-a+simd/hard\libg-musl.a(__cvt_u.o)
 .note.GNU-stack
                0x0000000000000000        0x0 c:/program files/microchip/xc32/v4.60/bin/bin/../../lib/gcc/pic32c/8.3.1/../../../../pic32c/lib/thumb/v7-a+simd/hard\libg-musl.a(__pop_float.o)
 .note.GNU-stack
                0x0000000000000000        0x0 c:/program files/microchip/xc32/v4.60/bin/bin/../../lib/gcc/pic32c/8.3.1/../../../../pic32c/lib/thumb/v7-a+simd/hard\libg-musl.a(__stdio_read.o)
 .note.GNU-stack
                0x0000000000000000        0x0 c:/program files/microchip/xc32/v4.60/bin/bin/../../lib/gcc/pic32c/8.3.1/../../../../pic32c/lib/thumb/v7-a+simd/hard\libg-musl.a(__towrite_rw.o)
 .note.GNU-stack
                0x0000000000000000        0x0 c:/program files/microchip/xc32/v4.60/bin/bin/../../lib/gcc/pic32c/8.3.1/../../../../pic32c/lib/thumb/v7-a+simd/hard\libg-musl.a(fwrite.o)
 .note.GNU-stack
                0x0000000000000000        0x0 c:/program files/microchip/xc32/v4.60/bin/bin/../../lib/gcc/pic32c/8.3.1/../../../../pic32c/lib/thumb/v7-a+simd/hard\libg-musl.a(putc.o)
 .note.GNU-stack
                0x0000000000000000        0x0 c:/program files/microchip/xc32/v4.60/bin/bin/../../lib/gcc/pic32c/8.3.1/../../../../pic32c/lib/thumb/v7-a+simd/hard\libg-musl.a(setvbuf.o)
 .note.GNU-stack
                0x0000000000000000        0x0 c:/program files/microchip/xc32/v4.60/bin/bin/../../lib/gcc/pic32c/8.3.1/../../../../pic32c/lib/thumb/v7-a+simd/hard\libg-musl.a(readv.o)
 .note.GNU-stack
                0x0000000000000000        0x0 c:/program files/microchip/xc32/v4.60/bin/bin/../../lib/gcc/pic32c/8.3.1/../../../../pic32c/lib/thumb/v7-a+simd/hard\libg-musl.a(__init_stdio.o)
 .note.GNU-stack
                0x0000000000000000        0x0 c:/program files/microchip/xc32/v4.60/bin/bin/../../lib/gcc/pic32c/8.3.1/../../../../pic32c/lib/thumb/v7-a+simd/hard\libg-musl.a(__out.o)
 .note.GNU-stack
                0x0000000000000000        0x0 c:/program files/microchip/xc32/v4.60/bin/bin/../../lib/gcc/pic32c/8.3.1/../../../../pic32c/lib/thumb/v7-a+simd/hard\libg-musl.a(__putc.o)
 .note.GNU-stack
                0x0000000000000000        0x0 c:/program files/microchip/xc32/v4.60/bin/bin/../../lib/gcc/pic32c/8.3.1/../../../../pic32c/lib/thumb/v7-a+simd/hard\libg-musl.a(__stderr.o)
 .note.GNU-stack
                0x0000000000000000        0x0 c:/program files/microchip/xc32/v4.60/bin/bin/../../lib/gcc/pic32c/8.3.1/../../../../pic32c/lib/thumb/v7-a+simd/hard\libg-musl.a(__stdio_close.o)
 .note.GNU-stack
                0x0000000000000000        0x0 c:/program files/microchip/xc32/v4.60/bin/bin/../../lib/gcc/pic32c/8.3.1/../../../../pic32c/lib/thumb/v7-a+simd/hard\libg-musl.a(__stdio_write.o)
 .note.GNU-stack
                0x0000000000000000        0x0 c:/program files/microchip/xc32/v4.60/bin/bin/../../lib/gcc/pic32c/8.3.1/../../../../pic32c/lib/thumb/v7-a+simd/hard\libg-musl.a(__stdout.o)
 .note.GNU-stack
                0x0000000000000000        0x0 c:/program files/microchip/xc32/v4.60/bin/bin/../../lib/gcc/pic32c/8.3.1/../../../../pic32c/lib/thumb/v7-a+simd/hard\libg-musl.a(__towrite.o)
 .note.GNU-stack
                0x0000000000000000        0x0 c:/program files/microchip/xc32/v4.60/bin/bin/../../lib/gcc/pic32c/8.3.1/../../../../pic32c/lib/thumb/v7-a+simd/hard\libg-musl.a(writev.o)
 .note.GNU-stack
                0x0000000000000000        0x0 c:/program files/microchip/xc32/v4.60/bin/bin/../../lib/gcc/pic32c/8.3.1/../../../../pic32c/lib/thumb/v7-a+simd/hard\libg-musl.a(__overflow.o)
 .note.GNU-stack
                0x0000000000000000        0x0 c:/program files/microchip/xc32/v4.60/bin/bin/../../lib/gcc/pic32c/8.3.1/../../../../pic32c/lib/thumb/v7-a+simd/hard\libg-musl.a(__fwrite.o)

__xc_reference_data
                0x0000000000000000       0xc0
 __xc_reference_data
                0x0000000000000000        0x4 c:/program files/microchip/xc32/v4.60/bin/bin/../../lib/gcc/pic32c/8.3.1/../../../../pic32c/lib/thumb/v7-a+simd/hard\libg-musl.a(stdin.o)
                0x0000000000000000                __stdin_needs_rw
 __xc_reference_data
                0x0000000000000004        0x4 c:/program files/microchip/xc32/v4.60/bin/bin/../../lib/gcc/pic32c/8.3.1/../../../../pic32c/lib/thumb/v7-a+simd/hard\libg-musl.a(stdout.o)
                0x0000000000000004                __stdout_needs_init
 __xc_reference_data
                0x0000000000000008        0xc c:/program files/microchip/xc32/v4.60/bin/bin/../../lib/gcc/pic32c/8.3.1/../../../../pic32c/lib/thumb/v7-a+simd/hard\libg-musl.a(__io_init_needed.o)
                0x0000000000000008                __io_init_needed
                0x0000000000000010                __io_init_needs_file
 __xc_reference_data
                0x0000000000000014       0x24 c:/program files/microchip/xc32/v4.60/bin/bin/../../lib/gcc/pic32c/8.3.1/../../../../pic32c/lib/thumb/v7-a+simd/hard\libg-musl.a(__io_rw_needed.o)
                0x0000000000000014                __io_rw_needed
 __xc_reference_data
                0x0000000000000038        0x8 c:/program files/microchip/xc32/v4.60/bin/bin/../../lib/gcc/pic32c/8.3.1/../../../../pic32c/lib/thumb/v7-a+simd/hard\libg-musl.a(putc.o)
                0x0000000000000038                __putc_needs_out
 __xc_reference_data
                0x0000000000000040        0x4 c:/program files/microchip/xc32/v4.60/bin/bin/../../lib/gcc/pic32c/8.3.1/../../../../pic32c/lib/thumb/v7-a+simd/hard\libg-musl.a(setvbuf.o)
                0x0000000000000040                __setvbuf_needs_buf
 __xc_reference_data
                0x0000000000000044       0x38 c:/program files/microchip/xc32/v4.60/bin/bin/../../lib/gcc/pic32c/8.3.1/../../../../pic32c/lib/thumb/v7-a+simd/hard\libg-musl.a(__io_buf_needed.o)
                0x0000000000000044                __io_buf_needed
 __xc_reference_data
                0x000000000000007c        0x8 c:/program files/microchip/xc32/v4.60/bin/bin/../../lib/gcc/pic32c/8.3.1/../../../../pic32c/lib/thumb/v7-a+simd/hard\libg-musl.a(__io_file_needed.o)
                0x000000000000007c                __io_file_needed
 __xc_reference_data
                0x0000000000000084       0x30 c:/program files/microchip/xc32/v4.60/bin/bin/../../lib/gcc/pic32c/8.3.1/../../../../pic32c/lib/thumb/v7-a+simd/hard\libg-musl.a(__io_std_needed.o)
                0x0000000000000084                __io_std_needed
 __xc_reference_data
                0x00000000000000b4        0x4 c:/program files/microchip/xc32/v4.60/bin/bin/../../lib/gcc/pic32c/8.3.1/../../../../pic32c/lib/thumb/v7-a+simd/hard\libg-musl.a(__stderr.o)
                0x00000000000000b4                __stderr_needs_file
 __xc_reference_data
                0x00000000000000b8        0x4 c:/program files/microchip/xc32/v4.60/bin/bin/../../lib/gcc/pic32c/8.3.1/../../../../pic32c/lib/thumb/v7-a+simd/hard\libg-musl.a(__stdout.o)
                0x00000000000000b8                __stdout_needs_file
 __xc_reference_data
                0x00000000000000bc        0x4 c:/program files/microchip/xc32/v4.60/bin/bin/../../lib/gcc/pic32c/8.3.1/../../../../pic32c/lib/thumb/v7-a+simd/hard\libg-musl.a(__fwrite.o)
                0x00000000000000bc                __fwrite_needs_std

.stack          0x0000000023fbeae0      0x100
 .stack         0x0000000023fbeae0      0x100 stack

.eh_frame%z1    0x0000000000000000        0x0
 .eh_frame      0x0000000000000000        0x0 c:/program files/microchip/xc32/v4.60/bin/bin/../../lib/gcc/pic32c/8.3.1/thumb/v7-a+simd/hard/crtbegin.o
